(dp0
S'disease_outbreak'
p1
(dp2
S'www.plenglish.com'
p3
I2
sS'www.compassion.ca'
p4
I1
sS'ShareEbolaNews.co'
p5
I1
sS'journals.plos.org'
p6
I5
sS'www.texaschildrensblog.org'
p7
I1
sS'www.dailyrxnews.com'
p8
I1
sS'www.dailynews.com'
p9
I1
sS'www.sugardaily.ng'
p10
I2
sS'checkorphan.org'
p11
I1
sS'article.wn.com'
p12
I1
sS'www.domain-b.com'
p13
I2
sS'islandeditions.wordpress.com'
p14
I2
sS'infectiousdiseases.about.com'
p15
I5
sS'mosquitosquadnorthshore.wordpress.com'
p16
I1
sS'gamerstudio.tv'
p17
I2
sS'www.canewse.com'
p18
I28
sS'thescoopblog.dallasnews.com'
p19
I3
sS'www.yahoo.com'
p20
I1
sS'Instagram.com'
p21
I1
sS'www.indiatvnews.com'
p22
I1
sS'bioprepwatch.com'
p23
I1
sS'www.theglobeandmail.com'
p24
I3
sS'medicalxpress.com'
p25
I3
sS'hypelifemagazine.com'
p26
I1
sS'www.nih.gov'
p27
I1
sS'africasacountry.com'
p28
I1
sS'subscribe.imngmedicalmedia.com'
p29
I1
sS'www.toofab.com'
p30
I1
sS'www.celebuzz.com'
p31
I2
sS'trove.com'
p32
I1
sS'www.usatoday.com'
p33
I1
sS'www.ohalright.com'
p34
I1
sS'dailysciencejournal.com'
p35
I1
sS'www.medicalnewstoday.com'
p36
I3
sS'elbagarcia.com'
p37
I1
sS'www.youthhealthmag.com'
p38
I1
sS'muhc.ca'
p39
I1
sS'CHIKUNGUNYA.Toda'
p40
I1
sS'www.healthline.com'
p41
I2
sS'www.gossipcop.com'
p42
I2
sS'adamatodl.tumblr.com'
p43
I1
sS'wwwnc.cdc.gov'
p44
I11
sS'news.nationalgeographic.com'
p45
I2
sS'stthomassource.com'
p46
I3
sS'www.wfaa.com'
p47
I1
sS'www.thetimesgazette.com'
p48
I1
sS'www.laht.com'
p49
I3
sS'www.voanews.com'
p50
I1
sS'us.hellomagazine.com'
p51
I1
sS'thecitypaperbogota.com'
p52
I2
sS'news.wustl.edu'
p53
I1
sS'stewartmarshall.tumblr.com'
p54
I1
sS'inthealth.oxfordjournals.org'
p55
I1
sS'espanol.images.search.yahoo.com'
p56
I1
sS'www.npr.org'
p57
I13
sS'newzcard.com'
p58
I1
sS'soundcloud.com'
p59
I1
sS'stcroixsource.com'
p60
I1
sS'Chikungunya.Toda'
p61
I1
sS'www.sgvmosquito.org'
p62
I1
sS'digjamaica.com'
p63
I1
sS'www.wsoctv.com'
p64
I2
sS'panampost.com'
p65
I2
sS'instagram.com'
p66
I4
sS'www.houstonpublicmedia.org'
p67
I2
sS'www.inside.com'
p68
I1
sS'jamaicabound123123.blogspot.com'
p69
I1
sS'shoespost.com'
p70
I1
sS'hollywoodlife.com'
p71
I2
sS'www.hcplive.com'
p72
I1
sS'repeatingislands.com'
p73
I1
sS'www.webmd.com'
p74
I1
sS'www.pestworld.org'
p75
I1
sS'www.techtimes.com'
p76
I1
sS'dragplus.com'
p77
I2
sS'www.barstoolsports.com'
p78
I1
sS'www.pasteur.fr'
p79
I1
sS'www.yorkshiretimes.co.uk'
p80
I1
sS'www.examiner.com'
p81
I2
sS'public.tableausoftware.com'
p82
I1
sS'jama.jamanetwork.com'
p83
I2
sS'crofsblogs.typepad.com'
p84
I14
sS'www.citypaper.com'
p85
I1
sS'photosciencechanel.com'
p86
I1
sS'www.newsmax.com'
p87
I1
sS'www.antillean.org'
p88
I2
sS'www.scientificamerican.com'
p89
I4
sS'pjmedia.com'
p90
I2
sS'www.presstelegram.com'
p91
I1
sS'www.dailystar.co.uk'
p92
I2
sS'news.fiu.edu'
p93
I1
sS'garyebrown.net'
p94
I1
sS'Checkupnewsroom.co'
p95
I1
sS'oldschoolnewbody.com'
p96
I1
sS'jamaica-gleaner.com'
p97
I3
sS'storify.com'
p98
I1
sS'www.abc.net.au'
p99
I1
sS'blurbrain.com'
p100
I1
sS'www.businessinsider.com'
p101
I1
sS'www.lefigaro.fr'
p102
I1
sS'www.phac-aspc.gc.ca'
p103
I1
sS'www.dddmag.com'
p104
I1
sS'www.ooyuz.com'
p105
I1
sS'ChikungunyaMOVIE.co'
p106
I1
sS'nigeriabook.com.ng'
p107
I1
sS'figshare.com'
p108
I2
sS'natural-remedies.eshcarmel.org'
p109
I1
sS'www.mfs-theothernews.com'
p110
I3
sS'www.sgvtribune.com'
p111
I1
sS'comptoncreekmad.org'
p112
I1
sS'www.oxfordjournals.org'
p113
I1
sS'www.barbadostoday.bb'
p114
I1
sS'itunes.apple.com'
p115
I1
sS'arthritis-research.com'
p116
I1
sS'www.pbs.org'
p117
I1
sS'www.edition.cnn.com'
p118
I2
sS'modernlatinos.com'
p119
I1
sS'www.gov.uk'
p120
I1
sS'www.stlucianewsonline.com'
p121
I1
sS'www.inquisitr.com'
p122
I5
sS'www.cnn.com'
p123
I10
sS'bigstory.ap.org'
p124
I3
sS'www.cosmopolitan.co.uk'
p125
I3
sS'www.tampabay.com'
p126
I1
sS'time.com'
p127
I5
sS'johnlurieart.com'
p128
I1
sS'www.mirror.co.uk'
p129
I1
sS'www.paho.org'
p130
I8
sS'tweetedtimes.com'
p131
I2
sS'www.intouchweekly.com'
p132
I2
sS'www.ketknbc.com'
p133
I1
sS'nypost.com'
p134
I1
sS'www.ncbi.nlm.nih.gov'
p135
I3
sS'losangeles.cityandpress.com'
p136
I1
sS'articles.philly.com'
p137
I1
sS'm.livescience.com'
p138
I2
sS'www.historyofvaccines.org'
p139
I1
sS'www.newsday.com'
p140
I1
sS'peru21.pe'
p141
I1
sS'www.caribbeanintelligence.com'
p142
I4
sS'usa.thetruth24.co'
p143
I1
sS'linkis.com'
p144
I3
sS'radaronline.com'
p145
I1
sS'www.ctvnews.ca'
p146
I3
sS'entomologytoday.org'
p147
I1
sS'www.huffingtonpost.ca'
p148
I6
sS'www.hollywoodtake.com'
p149
I1
sS'www.prnewswire.com'
p150
I1
sS'www.theyucatantimes.com'
p151
I1
sS'undergroundmedic.com'
p152
I1
sS'www.twentyfoursevenheadlines.com'
p153
I1
sS'www.dallasnews.com'
p154
I1
sS'www.arrownj.com'
p155
I1
sS'www.reddit.com'
p156
I1
sS'www.ticotimes.net'
p157
I3
sS'nuestroamigo.wordpress.com'
p158
I2
sS'www.business2community.com'
p159
I1
sS'www.jwatch.org'
p160
I1
sS'www.incognito.u'
p161
I1
sS'www.tmz.com'
p162
I3
sS'sites.securepaynet.net'
p163
I1
sS'www.latimes.com'
p164
I1
sS'www.theepochtimes.com'
p165
I1
sS'www.ky3.com'
p166
I2
sS'www.caribjournal.com'
p167
I3
sS'www.miaminewtimes.com'
p168
I3
sS'www.og.nr'
p169
I1
sS'bernews.com'
p170
I1
sS'currents.plos.org'
p171
I1
sS'martinique.la1ere.fr'
p172
I1
sS'www.gistplanet.net'
p173
I1
sS'carolynjoycooper.wordpress.com'
p174
I1
sS'ChikUnGunYa.Toda'
p175
I1
sS'LearningBees.com'
p176
I1
sS'www.startribune.com'
p177
I1
sS'www.caribbeanlifenews.com'
p178
I1
sS'www.noonsite.com'
p179
I1
sS'losangeles.cbslocal.com'
p180
I1
sS'www.avoidingbites.com'
p181
I1
sS'latino.foxnews.com'
p182
I2
sS'news.health.com'
p183
I2
sS'www.thestar.com'
p184
I2
sS'www.cbsnews.com'
p185
I1
sS'loopjamaica.com'
p186
I1
sS'www.virusnext.com'
p187
I2
sS'ictmax.org'
p188
I1
sS'chickgazette.com'
p189
I1
sS'www.telesurtv.net'
p190
I1
sS'warmjello.com'
p191
I1
sS'www.google.com'
p192
I3
sS'us.cnn.com'
p193
I1
sS'www.iracm.com'
p194
I1
sS'focusdailynews.com'
p195
I2
sS'ow.ly'
p196
I4
sS'annals.org'
p197
I1
sS'www.sciencedirect.com'
p198
I1
sS'www.amazon.com'
p199
I8
sS'www.medpagetoday.com'
p200
I2
sS'www.anagramtimes.com'
p201
I1
sS'gawker.com'
p202
I2
sS'www.browardpalmbeach.com'
p203
I1
sS'm.cb.pr'
p204
I1
sS'outbreaknewstoday.com'
p205
I25
sS'www.sunherald.com'
p206
I1
sS'www.guardian.co.tt'
p207
I2
sS'www.jdradio.ne'
p208
I1
sS'txtufz.ucoz.ua'
p209
I1
sS'www.forbes.com'
p210
I2
sS'kronista.co'
p211
I1
sS'madmimi.com'
p212
I1
sS'journals.lww.com'
p213
I1
sS'www.360nobs.com'
p214
I1
sS'www.yenewyorkpost.com'
p215
I1
sS'www.103fm.net'
p216
I1
sS'www.ubalert.com'
p217
I1
sS'dominicanewsonline.com'
p218
I1
sS'au.ibtimes.com'
p219
I1
sS'rightrelevance.com'
p220
I2
sS'www.guadeloupevip.com'
p221
I1
sS'djkaas.com'
p222
I1
sS'america.aljazeera.com'
p223
I1
sS'www.kfiam640.com'
p224
I1
sS'www.medicaldaily.com'
p225
I4
sS'www.nytimes.com'
p226
I2
sS'news.iheart.com'
p227
I1
sS'www.spc.int'
p228
I1
sS'www.thehindu.com'
p229
I1
sS'www.christianpost.com'
p230
I1
sS'www.kiisfm.com'
p231
I1
sS'nacchopreparedness.org'
p232
I1
sS'www.bostonherald.com'
p233
I1
sS'www.facebook.com'
p234
I4
sS'starmagazine.com'
p235
I1
sS'www.smithsonianmag.com'
p236
I9
sS'dfw.cbslocal.com'
p237
I1
sS'moonbattery.com'
p238
I1
sS'www.thebloggingdoctors.com'
p239
I1
sS'www.cdc.gov'
p240
I6
sS'www.anh-usa.org'
p241
I1
sS'edition.cnn.com'
p242
I4
sS'www.idcasereports.com'
p243
I3
sS'www.theguardian.com'
p244
I1
sS'healthintelligence.drupalgardens.com'
p245
I2
sS'ca.hellomagazine.com'
p246
I1
sS'www.themisbio.com'
p247
I1
sS'mythoughtsontechnologyandjamaica.blogspot.com'
p248
I5
sS'viconsortium.com'
p249
I1
sS'travel.gc.ca'
p250
I4
sS'www.caribbeannewsnow.com'
p251
I6
sS'www.usnews.com'
p252
I1
sS'www.complex.com'
p253
I1
sS'events-na10.adobeconnect.com'
p254
I1
sS'dcmosquitosquad.com'
p255
I1
sS'www.people.com'
p256
I2
sS'celebrity.yahoo.com'
p257
I1
sS'latinamericacurrentevents.com'
p258
I1
sS'abouthealthdegrees.com'
p259
I1
sS'cameronwebb.wordpress.com'
p260
I1
sS'www.eurekalert.org'
p261
I1
sS'www.caribbean360.com'
p262
I8
sS'www.thelancet.com'
p263
I3
sS'www.safebee.com'
p264
I1
sS'www.iqboom.com'
p265
I1
sS'www.fa-mag.com'
p266
I1
sS'www.empr.com'
p267
I1
sS'www.westindiesforum.com'
p268
I1
sS'www.the-rheumatologist.org'
p269
I2
sS'news.utep.edu'
p270
I1
sS'reliefweb.int'
p271
I2
sS'phys.org'
p272
I1
sS'vir.sgmjournals.org'
p273
I1
sS'perezhilton.com'
p274
I2
sS'www.sciencedaily.com'
p275
I5
sS'www.ust-global.com'
p276
I1
sS'tunein.com'
p277
I1
sS'www.nydailynews.com'
p278
I6
sS'iamcaribbean.co'
p279
I1
sS'hellovt.com'
p280
I2
sS'news.nationalpost.com'
p281
I1
sS'circanews.com'
p282
I1
sS'www.ipsnews.net'
p283
I1
sS'dlisted.com'
p284
I1
sS'jnkay.tumblr.com'
p285
I1
sS'www.globalmajoritynews.com'
p286
I1
sS'digitaledition.philstar.com'
p287
I1
sS'www.thedoctorstv.com'
p288
I1
sS'www.nola.com'
p289
I1
sS'actualidad.com.do'
p290
I1
sS'online.liebertpub.com'
p291
I1
sS'andreaclaire.onsugar.com'
p292
I1
sS'www.who.int'
p293
I1
sS'www.radionz.co.nz'
p294
I2
sS'www.macroinsider.com'
p295
I1
sS'www.foxnews.com'
p296
I1
sS'www.healio.com'
p297
I2
sS'www.cidrap.umn.edu'
p298
I7
sS'www.4-traders.com'
p299
I1
sS'www.wonderwall.com'
p300
I1
sS'www.maneyonline.com'
p301
I1
sS'pagesix.com'
p302
I2
sS'www.frontlinedesk.com'
p303
I1
sS'observer.com'
p304
I3
sS'www.youtube.com'
p305
I3
sS'wwno.org'
p306
I1
sS'www.dailymail.co.uk'
p307
I3
sS'dailyeeuu.tusueldo.com'
p308
I1
sS'www.sixfivenation.com'
p309
I1
sS'ourshores.org'
p310
I1
sS'news.yahoo.com'
p311
I1
sS'www.glamourmagazine.co.uk'
p312
I1
sS'www.agprofessional.com'
p313
I1
sS'www.standard.net'
p314
I1
sS'onlinelibrary.wiley.com'
p315
I4
sS'www.brownwoodnews.com'
p316
I1
sS'www.nbcdfw.com'
p317
I1
sS'www.zippednews.com'
p318
I1
sS'flutrackers.com'
p319
I16
sS'www.journals.elsevier.com'
p320
I2
sS'totalFreqs'
p321
I788
sS'www.usmagazine.com'
p322
I1
sS'www.ny1.com'
p323
I2
sS'twitter.com'
p324
I87
sS'www.globalhealthhub.org'
p325
I1
sS'www.trackingzebra.com'
p326
I1
sS'healthbistro.lifescript.com'
p327
I1
sS'news.google.com'
p328
I1
sS'www.huffingtonpost.com'
p329
I3
sS'news24online.com'
p330
I1
sS'www.amazon.ca'
p331
I10
sS'www.digitalspy.co.uk'
p332
I1
sS'en.luxuryscreens.com'
p333
I1
sS'www.justjared.com'
p334
I2
sS'artistaszonaoriente.blogspot.com'
p335
I1
sS'jqfkjp.at.ua'
p336
I1
sS'lovingthebike.com'
p337
I1
sS'hygimia69.blogspot.com'
p338
I1
sS'www.kiss925.com'
p339
I1
sS'endtimeheadlines.org'
p340
I1
sS'www.wikihow.com'
p341
I1
sS'www.smnweekly.com'
p342
I1
sS'www.aa.com.tr'
p343
I1
sS'www.pri.org'
p344
I1
sS'www.globalissues.org'
p345
I1
sS'www.socionomics.net'
p346
I1
sS'health--insurance.me'
p347
I3
sS'naturalunseenhazards.wordpress.com'
p348
I1
sS'www.healthmap.org'
p349
I18
sS'defamer.gawker.com'
p350
I2
sS'cloud-1410802539-cache.cdn-max.com'
p351
I1
sS'laht.com'
p352
I1
sS'www.washingtonpost.com'
p353
I1
sS'www.jamaicaobserver.com'
p354
I2
sS'www.denverpost.com'
p355
I1
sS'curacaochronicle.com'
p356
I1
sS'www.vox.com'
p357
I1
sS'www.canadianhealthcarenetwork.ca'
p358
I1
sS'getreadyforflu.org'
p359
I1
sS'nashvibes.com'
p360
I2
ssS'weather'
p361
(dp362
S'www.bsp.com.pg'
p363
I1
sS'mapsengine.google.com'
p364
I1
sS'www.awin1.com'
p365
I1
sS'www.compassion.ca'
p366
I1
sS'thediplomat.com'
p367
I1
sS'www.solidarites.org'
p368
I2
sS'www.candymag.com'
p369
I1
sS'www.americares.org'
p370
I3
sS'www.episcopalrelief.org'
p371
I1
sS'onetoday.google.com'
p372
I1
sS'play.google.com'
p373
I1
sS'www.skymetweather.com'
p374
I1
sS'article.wn.com'
p375
I3
sS'www.theage.com.au'
p376
I6
sS'www.jma.go.jp'
p377
I1
sS'www.upi.com'
p378
I1
sS'www.newrepublic.com'
p379
I2
sS'blog.charitynavigator.org'
p380
I1
sS'porknoser.blogspot.com'
p381
I1
sS'www.isasurf.org'
p382
I1
sS'blogs.news.com.au'
p383
I2
sS'www.winnipegfreepress.com'
p384
I1
sS'asianewsweekly.net'
p385
I1
sS'www.childfund.org.au'
p386
I2
sS'redcross.org.au'
p387
I5
sS'blog.conservation.org'
p388
I3
sS'www.theglobeandmail.com'
p389
I3
sS'www.linkplugapp.com'
p390
I41
sS'tasks.hotosm.org'
p391
I3
sS'www.materialworldblog.com'
p392
I1
sS'salvationist.ca'
p393
I1
sS'www.tearfund.org'
p394
I2
sS'www.skynews.com.au'
p395
I2
sS'www.foreignminister.gov.au'
p396
I1
sS'about.abc.net.au'
p397
I1
sS'abouthub.info'
p398
I1
sS'static.samaritanspurse.org.s3.amazonaws.com'
p399
I1
sS'greenpeaceblogs.org'
p400
I1
sS'm.canberratimes.com.au'
p401
I1
sS'www.oxfam.org.uk'
p402
I3
sS'www.patheos.com'
p403
I1
sS'www.weatherwatch.co.nz'
p404
I1
sS'www.journal.com.ph'
p405
I1
sS'www.wavesforwater.org'
p406
I1
sS'humanitariannews.org'
p407
I7
sS'www.sheltercluster.org'
p408
I1
sS'www.cnn.com'
p409
I38
sS'www.deseretnews.com'
p410
I4
sS'www.enca.com'
p411
I1
sS'donate.unicef.ph'
p412
I1
sS'blog.petaasiapacific.com'
p413
I1
sS'economictimes.indiatimes.com'
p414
I1
sS'gobgr.org'
p415
I1
sS'beforeitsnews.com'
p416
I5
sS'www.surfinglife.com.au'
p417
I1
sS'www.stripes.com'
p418
I1
sS'www.usatoday.com'
p419
I2
sS'www.ohalright.com'
p420
I1
sS'www.greenpeace.org.au'
p421
I1
sS'www.reshow.it'
p422
I1
sS'm.virginmoneygiving.com'
p423
I1
sS'www.gearthblog.com'
p424
I1
sS'droneblog.com'
p425
I1
sS'accord.org.ph'
p426
I1
sS'www.cwsglobal.org'
p427
I1
sS'www.catholicregister.org'
p428
I1
sS'blowingrocknews.com'
p429
I1
sS'donate.worldvision.org'
p430
I1
sS'www.dropbox.com'
p431
I1
sS'www.carbonbrief.org'
p432
I4
sS'act.greenpeace.org'
p433
I6
sS'www.nbcnews.com'
p434
I13
sS'www.interaksyon.com'
p435
I19
sS'www.theworldlyblend.com'
p436
I1
sS'theliberal.ie'
p437
I1
sS'www.discovervanuatu.com.au'
p438
I1
sS'www.dailytelegraph.com.au'
p439
I1
sS'm.greenpeace.org'
p440
I2
sS'news.nationalgeographic.com'
p441
I3
sS'www.gossipgawker.com'
p442
I2
sS'klimapolitik.com.mx'
p443
I1
sS'www.news.com.au'
p444
I2
sS'phys.org'
p445
I3
sS'www.rfoy.sharegivereceive.co'
p446
I1
sS'www.laht.com'
p447
I2
sS'www.voanews.com'
p448
I1
sS'www.savethechildren.org.au'
p449
I2
sS'thirdsectormagazine.com.au'
p450
I1
sS'gulfnews.com'
p451
I4
sS'blogs.unicef.org.uk'
p452
I3
sS'www.worldvision.org.nz'
p453
I1
sS'rotarystories-nzandpacific.blogspot.co.nz'
p454
I1
sS'www.eham.net'
p455
I1
sS'info24.us'
p456
I1
sS't.co'
p457
I1
sS'www.islamic-relief.org'
p458
I1
sS'animalsindisasters.typepad.com'
p459
I5
sS'www.surfline.com'
p460
I2
sS'democracyctr.org'
p461
I1
sS'vimeo.com'
p462
I2
sS'www.scoop.co.nz'
p463
I1
sS'www.680news.com'
p464
I1
sS'www.oxfam.ca'
p465
I3
sS'soundcloud.com'
p466
I1
sS'www.irishtimes.com'
p467
I1
sS'video.defence.gov.au?mediaId=f2d8106a-d38c-4985-9494-cd4a2594c52'
p468
I1
sS'econews.com.au'
p469
I1
sS'stories.imb.org'
p470
I2
sS'challengingtherhetoric.wordpress.com'
p471
I1
sS'www.snappytv.com'
p472
I1
sS'www.greens.org.nz'
p473
I1
sS'www.euronews.com'
p474
I1
sS'news.vice.com'
p475
I2
sS'cdn.viglink.com'
p476
I1
sS'www.rescue.org'
p477
I2
sS'www.asia-pacific.undp.org'
p478
I2
sS'www.unicef.org'
p479
I8
sS'www.climatechangedispatch.com'
p480
I1
sS'volleyballaustralia.org'
p481
I1
sS'peraktoday.com.my'
p482
I1
sS'savvyvirtualjobs.com'
p483
I1
sS'www.inside.com'
p484
I1
sS'weather.com.ph'
p485
I4
sS'www.directrelief.org'
p486
I4
sS'donate.feedthechildren.org'
p487
I1
sS'www.ybw.com'
p488
I1
sS'www.infiniteunknown.net'
p489
I1
sS'newsroom.unfccc.int'
p490
I1
sS'news.sky.com'
p491
I2
sS'www.cleveland.com'
p492
I1
sS'www.newstalkzb.co.nz'
p493
I6
sS'www.westernmorningnews.co.uk'
p494
I1
sS'www.smartup.ph'
p495
I1
sS'www.mapaction.org'
p496
I1
sS'countryoffice.unfpa.org'
p497
I1
sS'www.careinternational.org.uk'
p498
I1
sS'www.100resilientcities.org'
p499
I1
sS'www.adelaidenow.com.au'
p500
I1
sS'disastertechlab.org'
p501
I1
sS'ens-newswire.com'
p502
I1
sS'myemail.constantcontact.com'
p503
I2
sS'dragplus.com'
p504
I25
sS'portal.gdacs.org'
p505
I1
sS'devpolicy.org'
p506
I1
sS'secure.americares.org'
p507
I1
sS'www.chicagotribune.com'
p508
I1
sS'www.examiner.com'
p509
I5
sS'www.avatrade.com'
p510
I1
sS'crofsblogs.typepad.com'
p511
I1
sS'en.amda.or.jp'
p512
I1
sS'www.unisdr.org'
p513
I1
sS'www.care.org.au'
p514
I3
sS'ifreepress.com'
p515
I1
sS'earthdata.nasa.gov'
p516
I1
sS'www.sydneyswans.com.au'
p517
I1
sS'www.faithfulnews.com'
p518
I1
sS'www.scientificamerican.com'
p519
I1
sS'oneworld.org'
p520
I1
sS'www.stasiareport.com'
p521
I1
sS'www.redcross.org.au'
p522
I2
sS'www.top5stories.com'
p523
I1
sS'www.unicefusa.org'
p524
I11
sS'www.smh.com.au'
p525
I15
sS'mostpopulartweets.blogspot.com'
p526
I1
sS'www.freemasonrytoday.com'
p527
I1
sS'support.unwomen.org.au'
p528
I1
sS'sg.news.yahoo.com'
p529
I1
sS'disasterresponse.maps.arcgis.com'
p530
I1
sS'theconversation.com'
p531
I7
sS'www.habitatforhumanity.org.uk'
p532
I1
sS'www.heifer.org'
p533
I2
sS'medium.com'
p534
I1
sS'philippineresponse.iom.int'
p535
I2
sS'www.sun.mv'
p536
I1
sS'www.satellitetoday.com'
p537
I1
sS'pmm.nasa.gov'
p538
I2
sS'www.yachtingmagazine.com'
p539
I1
sS'yahoonewsdigest-intl.tumblr.com'
p540
I1
sS'rapidfire.sci.gsfc.nasa.gov'
p541
I1
sS're.ssec.wisc.edu:80'
p542
I1
sS'www.joholmes.com'
p543
I1
sS'www.christianaid.org.uk'
p544
I1
sS'www.abc.net.au'
p545
I40
sS'www.preventionweb.net'
p546
I4
sS'hosted2.ap.org'
p547
I3
sS'www.greenparty.org.uk'
p548
I1
sS'www.newswire.ca'
p549
I1
sS'www.aol.com'
p550
I1
sS'www.adb.org'
p551
I1
sS'www.travelpulse.com'
p552
I1
sS'centrehumanes.wordpress.com'
p553
I1
sS'www.ilovethebookofmormon.org'
p554
I1
sS'www.mamamia.com.au'
p555
I1
sS'assets.feedblitz.com'
p556
I1
sS'www.perthnow.com.au'
p557
I2
sS'www.internal-displacement.org'
p558
I1
sS'www.climatecouncil.org.au'
p559
I2
sS'www.care.org'
p560
I1
sS'world.news-round.com'
p561
I1
sS'www.adra.org'
p562
I1
sS'www.ecb.co.uk'
p563
I1
sS'www.internationalmedicalcorps.org.uk'
p564
I1
sS'www.mulatpinoy.ph'
p565
I1
sS'secure2.convio.net'
p566
I2
sS'bradblog.com'
p567
I1
sS'globalnews.ca'
p568
I3
sS'www.mercycorps.org'
p569
I2
sS'www.ilo.org'
p570
I2
sS'humanityroad.org'
p571
I1
sS'www.presstv.ir'
p572
I2
sS'www.tannacoffeefundraiser.co'
p573
I1
sS'www.khaleejtimes.com'
p574
I3
sS'deltatoday.blogspot.com'
p575
I2
sS'www.nasa.gov'
p576
I2
sS'unosatgis.cern.ch'
p577
I1
sS'www.yelosangelestimes.com'
p578
I1
sS'gulfnews.co'
p579
I1
sS'www.gov.uk'
p580
I2
sS'jpratt27.wordpress.com'
p581
I3
sS'www.duduradio.co'
p582
I1
sS'khon2.com'
p583
I2
sS'bigstory.ap.org'
p584
I2
sS'www.give2habitat.org'
p585
I1
sS'm.redcross.org.au'
p586
I1
sS'act.350.org'
p587
I25
sS'www.worldeconomics.com'
p588
I1
sS'time.com'
p589
I4
sS'thevane.gawker.com'
p590
I1
sS'www.cdacnetwork.org'
p591
I1
sS'www.ssd.noaa.gov'
p592
I1
sS'www.justgiving.com'
p593
I1
sS'www.scillytoday.com'
p594
I1
sS'www.christianheadlines.com'
p595
I1
sS'instagram.com'
p596
I9
sS'www.crs.org'
p597
I3
sS'www.gofundme.com'
p598
I6
sS'www.acnc.gov.au'
p599
I1
sS'www.startjoin.com'
p600
I1
sS'blogs.wsj.com'
p601
I1
sS'prasiaworldwide.com'
p602
I1
sS'uaset.co'
p603
I1
sS'www.undp.org'
p604
I1
sS'www.wpxi.com'
p605
I1
sS'www.pacificdisaster.net'
p606
I1
sS'www.chicagopeaceandjustice.org'
p607
I3
sS'www.acaps.org'
p608
I1
sS'www.ndrrmc.gov.ph'
p609
I2
sS'blog.noah.dost.gov.ph'
p610
I1
sS'www.ibtimes.co.uk'
p611
I3
sS'www.savethechildren.org.ph'
p612
I1
sS'tuoitrenews.vn'
p613
I2
sS'usa.thetruth24.com'
p614
I1
sS'FUNDINGMEXICO.COM'
p615
I1
sS'translate.google.com'
p616
I1
sS'www.organogold.com'
p617
I1
sS'saigoneer.com'
p618
I1
sS'catastropheinsight.aonbenfield.com'
p619
I1
sS'www.wfp.org'
p620
I6
sS'earthobservatory.nasa.gov'
p621
I1
sS'mashable.com'
p622
I13
sS'so-stadium-status.com'
p623
I2
sS'www.nrlmry.navy.mil'
p624
I1
sS'www.worldvision.ca'
p625
I1
sS'us5.campaign-archive2.com'
p626
I2
sS'm.theatlantic.com'
p627
I1
sS'blogs.crikey.com.au'
p628
I1
sS'linkis.com'
p629
I8
sS'newstreasury.com'
p630
I1
sS'news-round.com'
p631
I1
sS'pbs.twimg.com'
p632
I1
sS'www.worldanimalprotection.us.org'
p633
I1
sS'www.todayonline.com'
p634
I1
sS'www.DoctorAdvice4u.co'
p635
I1
sS'izea.com'
p636
I1
sS'www.thanhniennews.com'
p637
I3
sS'unfollowers.com'
p638
I1
sS'emergencies.worldvision.com.au'
p639
I1
sS'goto.secret-link.com'
p640
I2
sS'myfac.org.au'
p641
I1
sS'internationalneeds.org.au'
p642
I1
sS'www.straitstimes.com'
p643
I1
sS'www.theweathernetwork.com'
p644
I1
sS'www.reddit.com'
p645
I1
sS'dailycoffeenews.com'
p646
I1
sS'www.globalgiving.org'
p647
I3
sS'stofftree.com'
p648
I3
sS'www.rappler.com'
p649
I29
sS'www.wvi.org'
p650
I2
sS'www.greenpeace.org'
p651
I21
sS'blogs.adelaide.edu.au'
p652
I2
sS'www.rtcc.org'
p653
I3
sS'www.worldvision.org'
p654
I1
sS'us4.campaign-archive2.com'
p655
I1
sS'homeiswhereyourbagis.com'
p656
I1
sS'blogs.redcross.org.uk'
p657
I1
sS'www.sbs.com.au'
p658
I6
sS'peacebuilderscommunity.org'
p659
I1
sS'navaltoday.com'
p660
I1
sS'www.theaustralian.com.au'
p661
I3
sS'www.wunderground.com'
p662
I2
sS'www.latimes.com'
p663
I2
sS'lionsclubs.org.au'
p664
I1
sS'www.change.org'
p665
I1
sS'getrealphilippines.com'
p666
I1
sS'gorillaposition.com'
p667
I1
sS'saportareport.com'
p668
I1
sS'photographystops.blogspot.co'
p669
I1
sS'www.reuters.com'
p670
I11
sS'www.philstar.com'
p671
I1
sS'www.breakingnewspak.com'
p672
I1
sS'donatecartocharityvalue.blogspot.com'
p673
I1
sS'foreignminister.gov.au'
p674
I2
sS'www.shelterboxcanada.org'
p675
I1
sS'report24.co.uk'
p676
I1
sS'blogs.oxfam.org'
p677
I2
sS'act.climaterelief.org'
p678
I1
sS'www.dswd.gov.ph'
p679
I1
sS'digitalhumanitarians.com'
p680
I1
sS'www.wpro.who.int'
p681
I2
sS'thewatchers.adorraeli.com'
p682
I2
sS'agmetalminer.com'
p683
I1
sS'www.lowyinterpreter.org'
p684
I2
sS'anythingrelated.com'
p685
I1
sS'www.actionaid.org'
p686
I1
sS'www.ctvnews.ca'
p687
I2
sS'www.tenspider-weather.net'
p688
I1
sS'cbfblog.com'
p689
I1
sS'latino.foxnews.com'
p690
I1
sS'www.intelweb.bi'
p691
I1
sS'www.worldvision.org.uk'
p692
I1
sS'www.mormonnewsroom.org.nz'
p693
I1
sS'agos.rappler.com'
p694
I1
sS'shelterbox.org.nz'
p695
I1
sS'www.cbsnews.com'
p696
I1
sS'www.appsoko.com'
p697
I2
sS'us1.campaign-archive2.com'
p698
I1
sS'episcopaldigitalnetwork.com'
p699
I1
sS'www.ammado.com'
p700
I2
sS'www.brisbanetimes.com.au'
p701
I1
sS'redcross.org.a'
p702
I1
sS'unicefeapro.blogspot.com'
p703
I14
sS'abcnews.go.com'
p704
I2
sS'www.telesurtv.net'
p705
I1
sS'www.mnnonline.org'
p706
I2
sS'current.ly'
p707
I1
sS'www.acfid.asn.au'
p708
I1
sS'www.illawarramercury.com.au'
p709
I2
sS'www.habitatireland.ie'
p710
I2
sS'newmatilda.com'
p711
I1
sS'www.google.com'
p712
I6
sS'www.365gistplus.com'
p713
I1
sS'www.catholicnews.com'
p714
I1
sS'www.bloomberg.com'
p715
I4
sS'www.insuranceday.com'
p716
I1
sS'www.workwithbenpowell.com'
p717
I1
sS'www.wesleymission.org.au'
p718
I1
sS'blogs.cfr.org'
p719
I1
sS'ow.ly'
p720
I3
sS'googleasiapacific.blogspot.sg'
p721
I1
sS'thepeninsulaqatar.com'
p722
I2
sS'compassionservicesinternational.cloverdonations.com'
p723
I2
sS'www.cashcrate.com'
p724
I1
sS'englishnews.thaipbs.or.th'
p725
I1
sS'www.bbc.com'
p726
I7
sS'www.nzherald.co.nz'
p727
I4
sS'kosherveg.com'
p728
I2
sS'www.amazon.com'
p729
I4
sS'www.redcross.org.uk'
p730
I1
sS'donate.worldanimalprotection.org.au'
p731
I2
sS'www.actalliance.org'
p732
I1
sS'www.unitingworld.org.au'
p733
I2
sS'un.trendolizer.com'
p734
I1
sS'reachglobal.blogs.efca.org'
p735
I1
sS'www.cbc.ca'
p736
I9
sS'us4.campaign-archive1.com'
p737
I2
sS'www.csmonitor.com'
p738
I4
sS'policy-practice.oxfam.org.uk'
p739
I2
sS'www.itv.com'
p740
I6
sS'www.yachtingmonthly.com'
p741
I1
sS'sammy.hk'
p742
I1
sS'www.bcf.or.id'
p743
I1
sS'www.theatlantic.com'
p744
I5
sS'hosted.ap.org'
p745
I1
sS'climatenexus.org'
p746
I1
sS'www.earthweek.com'
p747
I1
sS'origin.www.futureoflight.philips.com'
p748
I1
sS'www.unbound.org'
p749
I1
sS'blog.chosun.com'
p750
I2
sS'www.samaritanspurse.org'
p751
I7
sS'thinkprogress.org'
p752
I3
sS'www.buzzfeed.com'
p753
I3
sS'www.telegraph.co.uk'
p754
I3
sS'globalvoicesonline.org'
p755
I1
sS'news.asiaone.com'
p756
I2
sS'www.citymetric.com'
p757
I1
sS'www.gmanetwork.com'
p758
I1
sS'www.ksl.com'
p759
I1
sS'rightrelevance.com'
p760
I6
sS'notalotofpeopleknowthat.wordpress.com'
p761
I1
sS'compassionservices.wordpress.com'
p762
I1
sS'www.caritas.org'
p763
I1
sS'www.stuff.co.nz'
p764
I9
sS'www.accuweather.com'
p765
I6
sS'blog.engagespark.com'
p766
I1
sS'issuu.com'
p767
I1
sS'rss2twi.com'
p768
I1
sS'www.oxfamblogs.org'
p769
I2
sS'www.iom.int'
p770
I2
sS'www.cnsnews.com'
p771
I1
sS'www.spc.int'
p772
I3
sS'www.thehindu.com'
p773
I1
sS'rt.com'
p774
I1
sS'us5.campaign-archive1.com'
p775
I2
sS'unfoundationblog.org'
p776
I1
sS'www.9news.com.au'
p777
I4
sS'www.motherjones.com'
p778
I1
sS'ca.news-freak.com'
p779
I1
sS'theverb.org'
p780
I1
sS'joejoebloggs.blogspot.com'
p781
I1
sS'doublej.net.au'
p782
I1
sS'www.australiangeographic.com.au'
p783
I1
sS'www.tehlozangeleztimez.com'
p784
I4
sS'www.msf.org.uk'
p785
I2
sS'givealittle.co.nz'
p786
I2
sS'nethope.org'
p787
I1
sS'www.international.gc.ca'
p788
I1
sS'www.oxfam.org.au'
p789
I7
sS'fllwrs.co'
p790
I1
sS'search.naver.com'
p791
I2
sS'allpinoynews.com'
p792
I1
sS'www.worldanimalprotection.org.uk'
p793
I2
sS'www.facebook.com'
p794
I26
sS'earthquakealert.blogspot.com'
p795
I1
sS'confessionsofanukay-ukayarcheologist.blogspot.com'
p796
I1
sS'woodtv.com'
p797
I1
sS'www.channelnewsasia.com'
p798
I1
sS'www.gulf-times.com'
p799
I1
sS'www.mapsofworld.com'
p800
I1
sS'www.unicef.ca'
p801
I1
sS'www.unocha.org'
p802
I2
sS'tinyurl.com'
p803
I2
sS'globalnation.inquirer.net'
p804
I2
sS'edition.cnn.com'
p805
I19
sS'apheda.org.au'
p806
I1
sS'www.newyorker.com'
p807
I2
sS'www.petaasiapacific.com'
p808
I1
sS'water.tallyfox.com'
p809
I1
sS'www.newstalk.com'
p810
I1
sS'www.mb.com.ph'
p811
I1
sS'www.civildefence.govt.nz'
p812
I1
sS'adf.dwi-nanto.web.id'
p813
I2
sS'www.foxsports.com.au'
p814
I1
sS'ca.tusueldo.com'
p815
I1
sS'samaritanspurse.ca'
p816
I1
sS'corecommunique.com'
p817
I1
sS'www.probonoaustralia.com.au'
p818
I2
sS'www.theguardian.com'
p819
I38
sS'emergencies.crs.org'
p820
I1
sS'www.usno.navy.mil'
p821
I1
sS'newzealand.usembassy.gov'
p822
I1
sS'mfa.gov.il'
p823
I2
sS'chasesfeed.com'
p824
I1
sS'www.weather.com'
p825
I11
sS'www.healthpromo.doh.gov.ph'
p826
I1
sS'www.globalpost.com'
p827
I1
sS'www.nexmo.com'
p828
I1
sS'www.humber.ca'
p829
I1
sS'www.realclimate.org'
p830
I3
sS'www.dailysabah.com'
p831
I1
sS'www.un-spider.org'
p832
I1
sS'www.wsj.com'
p833
I7
sS'globalcrisismanagement.net'
p834
I1
sS'fairtradeamerica.org'
p835
I1
sS'pam-coverup.beforeitsnews.com'
p836
I1
sS'www.fao.org'
p837
I2
sS'www.mirror.co.uk'
p838
I2
sS'ebola.ninja'
p839
I1
sS'www.tear.org.au'
p840
I1
sS'seattleorganicrestaurants.co'
p841
I1
sS'widerimage.reuters.com'
p842
I1
sS'www.travelandtourworld.com'
p843
I1
sS'blog.ncm.org'
p844
I2
sS'www.redr.org.au'
p845
I1
sS'blog.care.ca'
p846
I1
sS'adoptanegotiator.org'
p847
I1
sS'fox13now.com'
p848
I2
sS'www.ccc.govt.nz'
p849
I1
sS'www.supergossip.net'
p850
I1
sS'www.redcross.org'
p851
I1
sS'au.news.yahoo.com'
p852
I3
sS'www.flickr.com'
p853
I3
sS'www.radioaustralia.net.au'
p854
I3
sS'tamfitronics.com'
p855
I1
sS'metronews.ca'
p856
I1
sS'www.mtw.org'
p857
I1
sS'secured.greenpeace.org'
p858
I1
sS'www.sfktube.com'
p859
I1
sS'reliefweb.int'
p860
I28
sS'www.aljazeera.com'
p861
I4
sS'www.unicef.org.au'
p862
I9
sS'www.newcastlejets.com.au'
p863
I2
sS'www.chron.com'
p864
I2
sS'4600usd.com'
p865
I1
sS'maintenance.unicef.org.u'
p866
I1
sS'thenews.mx'
p867
I1
sS'www.bustle.com'
p868
I2
sS'www.ifaw.org'
p869
I3
sS'www.gov.ph'
p870
I1
sS'animalblog.co.uk'
p871
I1
sS'agenda.weforum.org'
p872
I2
sS'www.newscientist.com'
p873
I1
sS'dynamic.pdc.org'
p874
I1
sS'www.sunstar.com.ph'
p875
I1
sS'www.frecmenta.ro'
p876
I1
sS'www.pngloop.com'
p877
I1
sS'plan-international.org'
p878
I3
sS'shelterboxcanada.org'
p879
I1
sS'schizoincognito.com'
p880
I1
sS'geo201threats.wordpress.com'
p881
I1
sS'www.indiegogo.com'
p882
I3
sS'www.japantimes.co.jp'
p883
I2
sS'exploretraveler.com'
p884
I8
sS'digitaledition.philstar.com'
p885
I2
sS'www.pm.gov.pg'
p886
I1
sS'nelbie.com'
p887
I1
sS'www.economist.com'
p888
I4
sS'www.aid.govt.nz'
p889
I1
sS'www.rightnow.io'
p890
I1
sS'www.oxfam.org'
p891
I5
sS'www.reviewjournal.com'
p892
I1
sS'www.gettyimages.co.uk'
p893
I1
sS'www.arrl.org'
p894
I3
sS'www.1millionwomen.com.au'
p895
I1
sS'ec.europa.eu'
p896
I3
sS'newsinfo.inquirer.net'
p897
I4
sS'theobamacrat.com'
p898
I1
sS'www.redcross.org.nz'
p899
I1
sS'cottonaustralia.com.au'
p900
I1
sS'www.radionz.co.nz'
p901
I10
sS'www.foxnews.com'
p902
I2
sS'www.trust.org'
p903
I4
sS'www.surfandsunshine.com'
p904
I1
sS'www.lutheranworld.org'
p905
I1
sS'www.mojahedin.com'
p906
I3
sS'www.overv.e'
p907
I1
sS'www.icrc.org'
p908
I2
sS'us1.campaign-archive1.com'
p909
I1
sS'paoc.org'
p910
I1
sS'www.projecthope.org'
p911
I1
sS'politicsofpoverty.oxfamamerica.org'
p912
I1
sS'www.gangstanews.com'
p913
I1
sS'ph.news.yahoo.com'
p914
I1
sS'www.newslocker.com'
p915
I2
sS'www.redcross.ca'
p916
I6
sS'www.wam.ae'
p917
I2
sS'familylinks.icrc.org'
p918
I2
sS'blog.compassionuk.org'
p919
I2
sS'www.sail-world.com'
p920
I3
sS'www.supernoder.com'
p921
I1
sS'news.nab.com.au'
p922
I1
sS'nuclear-news.net'
p923
I1
sS'www.intracen.org'
p924
I1
sS'www.firstpost.com'
p925
I1
sS'www.unitar.org'
p926
I6
sS'www.youtube.com'
p927
I46
sS'www.newsweek.com'
p928
I2
sS'linkaloo.blogspot.de'
p929
I9
sS'www.i4u.com'
p930
I1
sS'www.dailymail.co.uk'
p931
I2
sS'foundationbeyondbelief.org'
p932
I1
sS'www.oxfamamerica.org'
p933
I1
sS'www.disasterscharter.org'
p934
I1
sS'news.24hoursapp.com'
p935
I1
sS'www.scoop.it'
p936
I1
sS'www.wired.com'
p937
I3
sS'disaster.trendolizer.com'
p938
I1
sS'freerotator.com'
p939
I1
sS'www.slate.com'
p940
I2
sS'world.einnews.com'
p941
I1
sS'www.samaritans-purse.org.uk'
p942
I1
sS'donate.oxfam.org.uk'
p943
I1
sS'news.yahoo.com'
p944
I3
sS'www.bbc.co.uk'
p945
I26
sS'care.ca'
p946
I1
sS'suarakolaitaga.blogspot.com'
p947
I1
sS'mobile.abc.net.au'
p948
I4
sS'www.greatergippsland.com'
p949
I1
sS'support.actionaid.org.au'
p950
I1
sS'storify.com'
p951
I4
sS'www.zippednews.com'
p952
I1
sS'blog.metoffice.gov.uk'
p953
I1
sS'en.cihan.com.tr'
p954
I1
sS'www.worldanimalprotection.org'
p955
I2
sS'exploretraveler.co'
p956
I1
sS'unhabitat.org'
p957
I1
sS'i.stuff.co.nz'
p958
I1
sS'www.vice.com'
p959
I1
sS'give.wfp.org'
p960
I2
sS'totalFreqs'
p961
I2130
sS'pacific.scoop.co.nz'
p962
I1
sS'au.tv.yahoo.com'
p963
I1
sS'buzcast.com'
p964
I3
sS'twitter.com'
p965
I431
sS'www.ifrc.org'
p966
I5
sS'realterryoradio.wix.com'
p967
I1
sS'weusegadgets.tumblr.com'
p968
I2
sS'www.france24.com'
p969
I3
sS'news.google.com'
p970
I1
sS'let-youknow.blogspot.com'
p971
I2
sS'hazmappingsummit.wordpress.com'
p972
I1
sS'www.huffingtonpost.com'
p973
I11
sS'www.thestar.com.my'
p974
I1
sS'blogwatch.tv'
p975
I1
sS'news.feedzilla.com'
p976
I1
sS'www.meteoearth.com'
p977
I3
sS'www.surfermag.com'
p978
I1
sS'techcrunch.com'
p979
I1
sS'www.nytimes.com'
p980
I12
sS'www.3news.co.nz'
p981
I2
sS'www.abs-cbnnews.com'
p982
I1
sS'www.greenleft.org.au'
p983
I1
sS'news24h.allnews24h.com'
p984
I8
sS'dlca.logcluster.org'
p985
I1
sS'www.geo-airbusds.com'
p986
I1
sS'www.abc15.com'
p987
I1
sS'www.medibank.com.au'
p988
I1
sS'www.shelterbox.org'
p989
I4
sS'my.care.org'
p990
I1
sS'grist.org'
p991
I1
sS'endtimeheadlines.org'
p992
I1
sS'www.sottomarinakite.it'
p993
I1
sS'm.smh.com.au'
p994
I1
sS'www.thesaturdaypaper.com.au'
p995
I3
sS'www.nst.com.my'
p996
I1
sS'www.thegwpf.com'
p997
I1
sS'www.arcgis.com'
p998
I1
sS'freewestpapua.org'
p999
I1
sS'www.canberratimes.com.au'
p1000
I1
sS'itunes.apple.com'
p1001
I1
sS'www.democracynow.org'
p1002
I1
sS'tcktcktck.org'
p1003
I1
sS'anmf.org.au'
p1004
I1
sS'tags.h12-media.com'
p1005
I1
sS'www.pearltrees.com'
p1006
I1
sS'one-dead.beforeitsnews.com'
p1007
I1
sS'www.bangkokpost.com'
p1008
I1
sS'www.worldvision.com.au'
p1009
I4
sS'www.twitlonger.com'
p1010
I1
sS'au.news-freak.com'
p1011
I57
sS'www.unfpa.org'
p1012
I2
sS'tallbloke.wordpress.com'
p1013
I1
sS'www.washingtonpost.com'
p1014
I7
sS'www.worldvision.org.ph'
p1015
I1
sS'www.publicfinanceinternational.org'
p1016
I1
sS'spaceref.com'
p1017
I1
sS'www.agrifeeds.org'
p1018
I2
sS'www.tsu.co'
p1019
I1
sS'www.geographical.co.uk'
p1020
I1
sS'www.marineinsight.com'
p1021
I1
sS'sites.google.com'
p1022
I1
sS'act.mtv.com'
p1023
I1
sS'www.independent.co.uk'
p1024
I6
sS'limportant.fr'
p1025
I1
sS'www.tehlosangelestimes.com'
p1026
I1
sS'google.org'
p1027
I1
sS'www.iied.org'
p1028
I1
ssS'shooting'
p1029
(dp1030
S'www.theblaze.com'
p1031
I1
sS'www.patheos.com'
p1032
I4
sS'southernlawyernc.blogspot.com'
p1033
I1
sS'www.launchgood.com'
p1034
I1
sS'm.apnews.com'
p1035
I1
sS'play.google.com'
p1036
I1
sS'wgntv.com'
p1037
I1
sS'whoneedssexed.tumblr.com'
p1038
I1
sS'www.canewse.com'
p1039
I11
sS'wabashcenter.typepad.com'
p1040
I1
sS'www.yahoo.com'
p1041
I1
sS'weprotestify.co'
p1042
I1
sS'sputniknews.com'
p1043
I1
sS'www.kboi2.com'
p1044
I1
sS'www.mintpressnews.com'
p1045
I2
sS'www.oruathletics.com'
p1046
I1
sS'www.DontTouchMyGuns.co'
p1047
I1
sS'www.gulf-times.com'
p1048
I1
sS'www.wtsp.com'
p1049
I1
sS'horriblecrime.com'
p1050
I1
sS'www.bostonglobe.com'
p1051
I2
sS'patdollard.com'
p1052
I1
sS'www.usatoday.com'
p1053
I1
sS'www.freep.com'
p1054
I1
sS'thoughcowardsflinch.com'
p1055
I1
sS'www.wusa9.com'
p1056
I1
sS'clarioncontentmedia.com'
p1057
I1
sS'itsautumnslife.com'
p1058
I1
sS'cuindependent.com'
p1059
I1
sS'www.nbcnews.com'
p1060
I6
sS'foreignpolicy.com'
p1061
I1
sS'burningbushwisdoms.wordpress.com'
p1062
I1
sS'www.ktvz.com'
p1063
I1
sS'www.handsupunited.org'
p1064
I1
sS'host.madison.com'
p1065
I1
sS'www.loonwatch.com'
p1066
I1
sS'www.thenorthwestern.com'
p1067
I1
sS'www.power961.com'
p1068
I1
sS'myfox8.co'
p1069
I1
sS'www.middleeasteye.net'
p1070
I5
sS'www.laht.com'
p1071
I1
sS'www.voanews.com'
p1072
I1
sS'www.wncn.com'
p1073
I4
sS'whatdoitellmykids.com'
p1074
I1
sS'alfestone.tumblr.com'
p1075
I1
sS'mepc.org'
p1076
I1
sS'ceasefiremagazine.co.uk'
p1077
I1
sS'www.doamuslims.org'
p1078
I1
sS'www.tikkun.org'
p1079
I1
sS'www.dailytarheel.com'
p1080
I1
sS'www.arabiangazette.com'
p1081
I2
sS'www.barenakedislam.com'
p1082
I1
sS'news.miurl.org'
p1083
I1
sS'www.findonweb.net'
p1084
I1
sS'www.providencejournal.com'
p1085
I1
sS'www.mercurynews.com'
p1086
I1
sS'www.wfmynews2.com'
p1087
I1
sS'www.GlobalSunTimes.com'
p1088
I1
sS'www.npr.org'
p1089
I3
sS'vimeo.com'
p1090
I3
sS'soundcloud.com'
p1091
I5
sS'threepercenternation.com'
p1092
I1
sS'www.newrepublic.com'
p1093
I1
sS'www.wsoctv.com'
p1094
I1
sS'cdn.viglink.com'
p1095
I1
sS'pamplinmedia.com'
p1096
I1
sS'goo.gl'
p1097
I1
sS'www.todayszaman.com'
p1098
I1
sS'www.inside.com'
p1099
I2
sS'news.sky.com'
p1100
I1
sS'petitions.whitehouse.gov'
p1101
I1
sS'scontent.xx.fbcdn.net'
p1102
I1
sS'www.naacp.org'
p1103
I1
sS'ictmax.org'
p1104
I1
sS'ronborst.blogspot.com'
p1105
I1
sS'www.truth-out.org'
p1106
I2
sS'www.cwsor.org'
p1107
I1
sS'chapelboro.com'
p1108
I1
sS'hpherald.com'
p1109
I1
sS'uk.thetruth24.com'
p1110
I4
sS'www.dixine.com'
p1111
I4
sS'myemail.constantcontact.com'
p1112
I1
sS'dragplus.com'
p1113
I5
sS'www.hercampus.com'
p1114
I1
sS'www.chicagotribune.com'
p1115
I1
sS'www.examiner.com'
p1116
I2
sS'www.thedenverchannel.com'
p1117
I1
sS'www.bellinghamherald.com'
p1118
I1
sS'www.avatrade.com'
p1119
I1
sS'www.uknewse.com'
p1120
I1
sS'willbord.com'
p1121
I1
sS'www.miamiherald.com'
p1122
I1
sS'www.wcvb.com'
p1123
I1
sS'www.aljazeera.net'
p1124
I1
sS'theislamicmonthly.com'
p1125
I1
sS'rehmats.wordpress.com'
p1126
I1
sS'www.webn.com'
p1127
I1
sS'auburn.247sports.com'
p1128
I1
sS'www.canadianmomeh.com'
p1129
I1
sS'm.espn.go.com'
p1130
I1
sS'www.salon.com'
p1131
I2
sS'www.alriyadh.com'
p1132
I1
sS'www.guns.com'
p1133
I1
sS'www.raceforward.org'
p1134
I1
sS'www.the-review.com'
p1135
I1
sS'www.readfulapp.com'
p1136
I1
sS'openermedia.blogspot.com'
p1137
I1
sS'hosted2.ap.org'
p1138
I1
sS'www.dailykos.com'
p1139
I1
sS'www.indyweek.com'
p1140
I1
sS'www.orlandosentinel.com'
p1141
I1
sS'www.aol.com'
p1142
I2
sS'www.euroasianews.com'
p1143
I1
sS'www.alternet.org'
p1144
I2
sS'thetruth24.co'
p1145
I1
sS'www.cronkitesports.com'
p1146
I2
sS'globalnews.ca'
p1147
I1
sS'www.turkiyenewspaper.com'
p1148
I1
sS'www.ibtimes.com'
p1149
I1
sS'www.mediaite.com'
p1150
I3
sS'itunes.apple.com'
p1151
I1
sS'abc11.com'
p1152
I5
sS'deltatoday.blogspot.com'
p1153
I1
sS'endthenra.com'
p1154
I4
sS'liftedtruth.tumblr.com'
p1155
I1
sS'www.newsmanity.com'
p1156
I1
sS'www.thedailybeast.com'
p1157
I3
sS'm.bbc.com'
p1158
I1
sS'www.thenational.ae'
p1159
I1
sS'yasminareality.com'
p1160
I1
sS'www.snsanalytics.com'
p1161
I2
sS'www.inquisitr.com'
p1162
I3
sS'www.cnn.com'
p1163
I17
sS'headsinthefreezer.tumblr.com'
p1164
I1
sS'bigstory.ap.org'
p1165
I2
sS'www.crazydogtshirts.com'
p1166
I1
sS'time.com'
p1167
I1
sS'ottawacitizen.com'
p1168
I1
sS'www.justgiving.com'
p1169
I2
sS'instagram.com'
p1170
I15
sS'www.gofundme.com'
p1171
I1
sS'oregon.24-7newz.com'
p1172
I1
sS'nowthisnews.com'
p1173
I1
sS'www.houseofsparky.com'
p1174
I1
sS'www.cair.com'
p1175
I1
sS'nypost.com'
p1176
I2
sS'tmi.me'
p1177
I1
sS'www.policemag.com'
p1178
I1
sS'www.kgw.com'
p1179
I7
sS'RT.co'
p1180
I1
sS'www.guerardmedia.com'
p1181
I1
sS'www.islam21c.com'
p1182
I1
sS'www.dailyemerald.com'
p1183
I1
sS'www.sportingnews.com'
p1184
I1
sS'indianexpress.com'
p1185
I1
sS'www.newsday.com'
p1186
I1
sS'fusion.net'
p1187
I2
sS'mashable.com'
p1188
I4
sS'so-stadium-status.com'
p1189
I4
sS'fox4kc.com'
p1190
I1
sS'm.sfgate.com'
p1191
I1
sS'usa.thetruth24.co'
p1192
I1
sS'truth-out.org'
p1193
I2
sS'themuslimvibe.com'
p1194
I1
sS'ktla.com'
p1195
I1
sS'linkis.com'
p1196
I7
sS'elitedaily.com'
p1197
I1
sS'www.youcaring.com'
p1198
I1
sS'www.zerofiltered.com'
p1199
I1
sS'www.huffingtonpost.ca'
p1200
I1
sS'www.duqsm.com'
p1201
I1
sS'www.un.org'
p1202
I1
sS'www.huffingtonpost.co'
p1203
I1
sS'www.kvue.com'
p1204
I1
sS'www.buzzfeed.com'
p1205
I16
sS'www.ctnow.com'
p1206
I1
sS'www.newsobserver.com'
p1207
I7
sS'www.oregonlive.com'
p1208
I24
sS'recordpub.com'
p1209
I1
sS'www.heraldsun.com'
p1210
I1
sS'amp.twimg.com'
p1211
I3
sS'stofftree.com'
p1212
I1
sS'touch.latimes.com'
p1213
I1
sS'sports.yahoo.com'
p1214
I1
sS'www.14publications.com'
p1215
I2
sS'www.thenewstribune.com'
p1216
I1
sS'www.ibnpercy.com'
p1217
I1
sS'www.latimes.com'
p1218
I5
sS'madworldnews.com'
p1219
I1
sS'www.change.org'
p1220
I1
sS'www.abubaraa.co.uk'
p1221
I1
sS'www.charlotteobserver.com'
p1222
I3
sS'www.wdsu.com'
p1223
I1
sS'photographystops.blogspot.co'
p1224
I1
sS'www.occupywallst.nyc'
p1225
I1
sS'www.reuters.com'
p1226
I12
sS'keegan.nyc'
p1227
I2
sS'www.msnbc.com'
p1228
I3
sS'www.tompainetoday.com'
p1229
I1
sS'www.smh.com.au'
p1230
I1
sS'www.samharris.org'
p1231
I1
sS'www1.nyc.gov'
p1232
I1
sS'www.middleeastmonitor.com'
p1233
I1
sS'www.katu.com'
p1234
I5
sS'www.cbsnews.com'
p1235
I5
sS'www.groei360.com'
p1236
I1
sS'urbanintellectuals.com'
p1237
I1
sS'www.kezi.com'
p1238
I2
sS'www.brisbanetimes.com.au'
p1239
I1
sS'www.policeone.com'
p1240
I1
sS'abcnews.go.com'
p1241
I5
sS'watson.brown.edu'
p1242
I1
sS'woundedamericanwarrior.com'
p1243
I1
sS'planetnewsworld.wordpress.com'
p1244
I1
sS'www.whitehouse.gov'
p1245
I1
sS'us.cnn.com'
p1246
I1
sS'ow.ly'
p1247
I3
sS'pulse.ncpolicywatch.org'
p1248
I1
sS'www.kptv.com'
p1249
I6
sS'www.amazon.com'
p1250
I1
sS'braingarbagedystopie.blogspot.com'
p1251
I1
sS'empeopled.com'
p1252
I1
sS'gawker.com'
p1253
I3
sS'www.juancole.com'
p1254
I1
sS'rover.ebay.com'
p1255
I1
sS'mic.com'
p1256
I2
sS'www.onbeing.org'
p1257
I1
sS'live.huffingtonpost.com'
p1258
I1
sS'www.fairobserver.com'
p1259
I1
sS'oregon.4h.oregonstate.edu'
p1260
I1
sS'bleacherreport.com'
p1261
I1
sS'kobi5.com'
p1262
I2
sS'www.thesmokinggun.com'
p1263
I1
sS'www.faithfreedom.org'
p1264
I1
sS'searchcollegesports.com'
p1265
I1
sS'TheReligionOfPeace.co'
p1266
I1
sS'vine.co'
p1267
I14
sS'muftah.org'
p1268
I1
sS'www.king5.co'
p1269
I1
sS'www.yenewyorkpost.com'
p1270
I1
sS'tribune.com.pk'
p1271
I3
sS'theweek.com'
p1272
I1
sS'scotscoop.com'
p1273
I1
sS'apatheticatheist.blogspot.ca'
p1274
I1
sS'www.thefridaytimes.com'
p1275
I1
sS'america.aljazeera.com'
p1276
I5
sS'www.komonews.com'
p1277
I1
sS'fireofliberty.com'
p1278
I1
sS'bytheirstrangefruit.blogspot.com'
p1279
I1
sS'guardianlv.com'
p1280
I1
sS'thehill.com'
p1281
I1
sS'freerotator.com'
p1282
I1
sS'www.cnsnews.com'
p1283
I1
sS'www.poynter.org'
p1284
I1
sS'www.noozami.com'
p1285
I1
sS'koin.com'
p1286
I5
sS'rt.com'
p1287
I5
sS'www.clarionproject.org'
p1288
I1
sS'www.wyomingnews.com'
p1289
I1
sS'weaselzippers.us'
p1290
I1
sS'www.puisina.com'
p1291
I1
sS'colorlines.com'
p1292
I1
sS'www.mtv.com'
p1293
I1
sS'www.dailydot.com'
p1294
I2
sS'www.pinterest.com'
p1295
I1
sS'www.democracynow.org'
p1296
I2
sS'www.tehlozangeleztimez.com'
p1297
I1
sS'www.ciibroadcasting.com'
p1298
I1
sS'www.revereradionetwork.com'
p1299
I1
sS'naomiishisaka.smugmug.com'
p1300
I1
sS'badbluetech.bitnamiapp.com'
p1301
I2
sS'www.facebook.com'
p1302
I23
sS'radicalcitizenmedia.com'
p1303
I1
sS'sponsoredtweets.com?utm_source=sponsoredtwts&utm_medium=referral%2520program&utm_campaign=tweeter%2520referra'
p1304
I1
sS'talkingpointsmemo.com'
p1305
I2
sS'baylorlariat.com'
p1306
I1
sS'play.anghami.com'
p1307
I1
sS'whitmanpioneer.com'
p1308
I1
sS'edition.cnn.com'
p1309
I3
sS'www.dailymotion.com'
p1310
I1
sS'www.newyorker.com'
p1311
I1
sS'deals.ebay.com'
p1312
I1
sS'www.beachconnection.net'
p1313
I1
sS'm.startribune.com'
p1314
I1
sS'bpr.berkeley.edu'
p1315
I1
sS'www.wral.com'
p1316
I4
sS'www.theguardian.com'
p1317
I7
sS'abcnews.go.co'
p1318
I1
sS'www.theepochtimes.com'
p1319
I1
sS'www.philadelphianquirer.com'
p1320
I1
sS'www.snappytv.com'
p1321
I1
sS'www.sott.net'
p1322
I1
sS'chasesfeed.com'
p1323
I1
sS'www.newser.com'
p1324
I1
sS'prospect.org'
p1325
I1
sS'www.bizpacreview.com'
p1326
I1
sS'www.usnews.com'
p1327
I2
sS'newsok.com'
p1328
I1
sS'www.wsj.com'
p1329
I1
sS'ipasgiveaway.com'
p1330
I1
sS'creepingsharia.wordpress.com'
p1331
I1
sS'm.fox19.com'
p1332
I1
sS'abc30.com'
p1333
I1
sS'wh0lenews.blogspot.com'
p1334
I1
sS'www.metro.us'
p1335
I1
sS'www.fromthesquare.org'
p1336
I1
sS'www.opednews.com'
p1337
I1
sS'www.twitlonger.com'
p1338
I1
sS'gotnews.com'
p1339
I8
sS'www.si.com'
p1340
I1
sS'au.news.yahoo.com'
p1341
I1
sS'www.flickr.com'
p1342
I2
sS'timfordphoto.com'
p1343
I1
sS'www.sfktube.com'
p1344
I2
sS'www.aljazeera.com'
p1345
I4
sS'www.commondreams.org'
p1346
I1
sS'www.chron.com'
p1347
I2
sS'equalforce.ne'
p1348
I1
sS'www.turkeyagenda.com'
p1349
I1
sS'nathanbeesley.wordpress.com'
p1350
I1
sS'www.arabamericannews.com'
p1351
I2
sS'mobile.nytimes.com'
p1352
I2
sS'www.newtrenddiaries.com'
p1353
I1
sS'electronicintifada.net'
p1354
I1
sS'www.claytargetsonline.com'
p1355
I1
sS'circanews.com'
p1356
I1
sS'm.bbc.co.uk'
p1357
I1
sS'www.seattlepi.com'
p1358
I1
sS'www.ebay.com'
p1359
I1
sS'www.rightnow.io'
p1360
I3
sS'www.fox16.com'
p1361
I1
sS'www.reviewjournal.com'
p1362
I2
sS'theiranproject.com'
p1363
I2
sS'storycorps.org'
p1364
I1
sS'8b.kz'
p1365
I1
sS'unite4humanity.wordpress.com'
p1366
I1
sS'www.foxnews.com'
p1367
I8
sS'www.arabworld360.info'
p1368
I1
sS'dailycapital.pk'
p1369
I1
sS'sportspressnw.com'
p1370
I1
sS'www.supernoder.com'
p1371
I2
sS'www.fdlreporter.com'
p1372
I1
sS'www.youtube.com'
p1373
I72
sS'espn.go.com'
p1374
I1
sS'www.kmtr.com'
p1375
I1
sS'www.newsweek.com'
p1376
I1
sS'linkaloo.blogspot.de'
p1377
I4
sS'www.dailymail.co.uk'
p1378
I5
sS'dailyeeuu.tusueldo.com'
p1379
I2
sS'zaytuna.org'
p1380
I1
sS'news.yahoo.com'
p1381
I8
sS'www.bbc.co.uk'
p1382
I5
sS'medium.com'
p1383
I1
sS'www.thetimes.co.uk'
p1384
I1
sS'wunc.org'
p1385
I4
sS'kfor.com'
p1386
I1
sS'totalFreqs'
p1387
I1446
sS'foxct.com'
p1388
I1
sS'twitter.com'
p1389
I592
sS'tu2dm.blogspot.com'
p1390
I1
sS'news.google.com'
p1391
I1
sS'globalgrind.com'
p1392
I1
sS'mediadiversified.org'
p1393
I1
sS'knews.esy.es'
p1394
I1
sS'www.huffingtonpost.com'
p1395
I23
sS'm.fbi.gov'
p1396
I1
sS'www.ncpolicywatch.com'
p1397
I1
sS'bearingarms.com'
p1398
I1
sS'www.nytimes.com'
p1399
I12
sS'eiram.org'
p1400
I1
sS'today.yougov.com'
p1401
I1
sS'unsensoredactress.x.fc2.com'
p1402
I1
sS'news24h.allnews24h.com'
p1403
I3
sS'www.kake.com'
p1404
I1
sS'www.breaking911.com'
p1405
I2
sS'realraw.us'
p1406
I1
sS'KOIN.co'
p1407
I1
sS'www.aa.com.tr'
p1408
I1
sS'www.1stheadlines.com'
p1409
I1
sS'www.presstv.ir'
p1410
I1
sS'www.kval.com'
p1411
I2
sS'www.umhoops.com'
p1412
I1
sS'www.herald-dispatch.com'
p1413
I1
sS'www.rawstory.com'
p1414
I5
sS'lmgtfy.com'
p1415
I1
sS'www.sfgate.com'
p1416
I3
sS'www.washingtonpost.com'
p1417
I10
sS'abc13.com'
p1418
I1
sS'theamericanmuslim.org'
p1419
I1
sS'www.denverpost.com'
p1420
I2
sS'www.robinspost.com'
p1421
I2
sS'thelead.blogs.cnn.com'
p1422
I1
sS'www.vox.com'
p1423
I1
sS'www.independent.co.uk'
p1424
I12
sS'www.kentucky.com'
p1425
I1
ssS'plane_crash'
p1426
(dp1427
S'news.aviation-safety.net'
p1428
I2
sS'www.lbcgroup.tv'
p1429
I1
sS'lessonslearned.faa.gov'
p1430
I1
sS'stanvanhoucke.blogspot.nl'
p1431
I1
sS'hesitantgee.co.vu'
p1432
I1
sS'video.metrotvnews.com'
p1433
I1
sS'yahoonewsdigest-gb.tumblr.com'
p1434
I1
sS'aviation-safety.net'
p1435
I4
sS'wordlink.com'
p1436
I2
sS'www.theblaze.com'
p1437
I2
sS'willyloman.wordpress.com'
p1438
I1
sS'audioMIR.inf'
p1439
I1
sS'cnews.canoe.ca'
p1440
I1
sS'www.military-today.com'
p1441
I1
sS'ShareEbolaNews.co'
p1442
I1
sS'www.pomonews.com'
p1443
I2
sS'www.nybooks.com'
p1444
I2
sS'australianaviation.com.au'
p1445
I4
sS'm.adelaidenow.com.au'
p1446
I1
sS'www.google.co.uk'
p1447
I1
sS'www.cnnindonesia.com'
p1448
I7
sS'm.bbc.com'
p1449
I10
sS'www.defenseone.com'
p1450
I1
sS'www.teledynemarinesystems.com'
p1451
I2
sS'ph.news.yahoo.com'
p1452
I1
sS'affairstoday.co.uk'
p1453
I1
sS'm.apnews.com'
p1454
I6
sS'www.themalaysianinsider.com'
p1455
I31
sS'article.wn.com'
p1456
I1
sS'beritagar.com'
p1457
I1
sS'www.theage.com.au'
p1458
I8
sS'commons.wikimedia.org'
p1459
I1
sS'china.org.cn'
p1460
I1
sS'candobetter.net'
p1461
I5
sS'openparachute.wordpress.com'
p1462
I1
sS'www.upi.com'
p1463
I2
sS'www.snappytv.com'
p1464
I1
sS'edition.presstv.ir'
p1465
I1
sS'www.gazeta.ru'
p1466
I1
sS'english.pravda.ru'
p1467
I8
sS'christinenegroni.blogspot.com'
p1468
I1
sS'wikispooks.com'
p1469
I5
sS'm.metrotvnews.com'
p1470
I1
sS'm.ndtv.com'
p1471
I2
sS'www.avherald.com'
p1472
I1
sS'Instagram.com'
p1473
I1
sS'www.theinsider.ua'
p1474
I1
sS'www.veeflash.com'
p1475
I1
sS'crcuf.fr'
p1476
I1
sS'mightyturk.wordpress.com'
p1477
I2
sS'www.pcapp.inf'
p1478
I1
sS'money.cnn.com'
p1479
I5
sS'globaleconomicanalysis.blogspot.com'
p1480
I3
sS'www.detroitnews.com'
p1481
I1
sS'investmentwatchblog.com'
p1482
I3
sS'www.microsofttranslator.com'
p1483
I4
sS'consortiumnews.com'
p1484
I7
sS'www.theglobeandmail.com'
p1485
I2
sS'theamericanchronicle.blogspot.nl'
p1486
I1
sS'www.jeune-independant.net'
p1487
I1
sS'omoooduarere.blogspot.cz'
p1488
I1
sS'arxiv.org'
p1489
I1
sS'newday.blogs.cnn.com'
p1490
I1
sS'www.skynews.com.au'
p1491
I2
sS'blog.oup.com'
p1492
I2
sS'www.ronpaulinstitute.org'
p1493
I2
sS'www.travelpulse.com'
p1494
I3
sS'www.rankkin.com'
p1495
I1
sS'www.nufc.com'
p1496
I1
sS'www.panorama.am'
p1497
I1
sS'en.eurasianunion.ch'
p1498
I2
sS'tribktla.files.wordpress.com'
p1499
I1
sS'www.fifa.com'
p1500
I1
sS'delinksepers.tumblr.com'
p1501
I2
sS'www.thairath.co.th'
p1502
I1
sS'www.mmo-champion.com'
p1503
I1
sS'm.canberratimes.com.au'
p1504
I1
sS'v2.zopim.com'
p1505
I1
sS'translate.google.com.au'
p1506
I1
sS'www.nbcbayarea.com'
p1507
I1
sS'becircumspect.blogspot.co.nz'
p1508
I4
sS'www.wanttoknow.nl'
p1509
I2
sS'news.joyr.net'
p1510
I3
sS'www.gaystarnews.com'
p1511
I1
sS'www.bangaloreaviation.com'
p1512
I1
sS'www.airasia.com'
p1513
I1
sS'www.trendinalia.com'
p1514
I3
sS'macedoniaonline.eu'
p1515
I2
sS'gordonua.com'
p1516
I1
sS'www.deseretnews.com'
p1517
I1
sS'www.informationclearinghouse.info'
p1518
I2
sS'www.bazaardaily.co.uk'
p1519
I1
sS'www.dailyslave.com'
p1520
I1
sS'www.wltx.com'
p1521
I2
sS'ukraineantifascistsolidarity.wordpress.com'
p1522
I1
sS'www.evernote.com'
p1523
I1
sS'www.hln.be'
p1524
I1
sS'economictimes.indiatimes.com'
p1525
I3
sS'thepapercity.tumblr.com'
p1526
I1
sS'www.google.nl'
p1527
I2
sS'www.bostonglobe.com'
p1528
I3
sS'beforeitsnews.com'
p1529
I6
sS'khpg.org'
p1530
I1
sS'www.stripes.com'
p1531
I1
sS'nymag.com'
p1532
I1
sS'lockerbiecase.blogspot.com'
p1533
I3
sS'www.parhlo.com'
p1534
I1
sS'www.firstpost.com'
p1535
I9
sS'www.usatoday.com'
p1536
I9
sS'famagusta-gazette.com'
p1537
I12
sS'tvnz.co.nz'
p1538
I2
sS'onderzoeksraad.nl'
p1539
I1
sS'atwonline.com'
p1540
I3
sS'unilubis.com'
p1541
I1
sS'in.news.yahoo.com'
p1542
I1
sS'JeffWise.ne'
p1543
I1
sS'www.elysee.fr'
p1544
I1
sS'web.archive.org'
p1545
I2
sS'www.youthhealthmag.com'
p1546
I1
sS'niqnaq.wordpress.com'
p1547
I2
sS'directaerojobs.com'
p1548
I4
sS'm.voanews.com'
p1549
I1
sS'novorossiya.today'
p1550
I2
sS'theredandtheblue.org'
p1551
I2
sS'arsenalfordemocracy.com'
p1552
I1
sS'fortruss.blogspot.ru'
p1553
I1
sS'www.geopoliticalmonitor.com'
p1554
I1
sS'sjlendman.blogspot.co.uk'
p1555
I1
sS'sherriequestioningall.blogspot.com'
p1556
I1
sS'www.sprottmoney.com'
p1557
I1
sS'fajar.co.id'
p1558
I1
sS'www.cnbc.com'
p1559
I5
sS'www.dropbox.com'
p1560
I2
sS'www.lindanieuws.nl'
p1561
I1
sS'www.maxresistance.com'
p1562
I1
sS'rockstarbadboy.com'
p1563
I1
sS'news.google.pl'
p1564
I1
sS'vineyardsaker.blogspot.nl'
p1565
I2
sS'handhaafster.com'
p1566
I1
sS'www.interaksyon.com'
p1567
I1
sS'www.president.gov.ua'
p1568
I2
sS'allnewspipeline.com'
p1569
I1
sS'bobstruth.blogspot.com.au'
p1570
I1
sS'corrective.or'
p1571
I1
sS'willbluejames.blogspot.com'
p1572
I1
sS'www.dailytelegraph.com.au'
p1573
I13
sS'sites.google.com'
p1574
I1
sS'de-formatage.over-blog.com'
p1575
I1
sS'graphics.wsj.com'
p1576
I2
sS'www.koninklijkhuis.nl'
p1577
I1
sS'codename-it.livejournal.com'
p1578
I1
sS'www.unian.info'
p1579
I4
sS'm.todayonline.com'
p1580
I3
sS'www.news.com.au'
p1581
I33
sS'www.telegraaf.nl'
p1582
I8
sS'www.paypal.com'
p1583
I1
sS'www.voanews.com'
p1584
I16
sS'www.nltimes.nl'
p1585
I15
sS'www.dailymail.co.uk'
p1586
I39
sS'www.nrc.nl'
p1587
I5
sS'www.modulamini.com'
p1588
I1
sS'moroccaninsaudi.wordpress.com'
p1589
I1
sS'news.xinhuanet.com'
p1590
I4
sS'www.abeldanger.net'
p1591
I2
sS'www.shine.com.au'
p1592
I3
sS'4bitnews.co'
p1593
I1
sS'www.thejournal.ie'
p1594
I1
sS'ukrainereferendum.blogspot.com'
p1595
I4
sS'numerologyhq.net'
p1596
I1
sS'www.themorningbulletin.com.au'
p1597
I1
sS'uk.sputniknews.com'
p1598
I1
sS'www.interpretermag.com'
p1599
I12
sS'vineyardsaker.blogspot.co.uk'
p1600
I1
sS'www.prisonplanet.com'
p1601
I1
sS'www.sott.net'
p1602
I57
sS'bitly.com'
p1603
I2
sS'www.tribunnews.com'
p1604
I4
sS'www.newkerala.com'
p1605
I1
sS'www.neonnettle.com'
p1606
I5
sS'j.gs'
p1607
I3
sS'www.tagesschau.de'
p1608
I3
sS'www.neurope.eu'
p1609
I2
sS'jakarta.coconuts.co'
p1610
I2
sS'dl.dropboxusercontent.com'
p1611
I1
sS'ronrambles.com'
p1612
I3
sS's13.co'
p1613
I1
sS'postmodernnews.com'
p1614
I1
sS'www.GlobalSunTimes.com'
p1615
I2
sS'www.iss.europa.eu'
p1616
I1
sS'www.opendemocracy.net'
p1617
I1
sS'www.europarl.europa.eu'
p1618
I3
sS'clss6.blogspot.co'
p1619
I1
sS'fortruss.blogspot.com.au'
p1620
I2
sS'harianterbit.com'
p1621
I1
sS'www.atlanticcouncil.org'
p1622
I3
sS'soundcloud.com'
p1623
I7
sS'www.omroepwnl.nl'
p1624
I2
sS'www.irishtimes.com'
p1625
I1
sS'flight-mh17.beforeitsnews.com'
p1626
I1
sS'www.elsevier.nl'
p1627
I3
sS'www.activistpost.com'
p1628
I4
sS'qz.com'
p1629
I2
sS'whiteapple.ninja'
p1630
I2
sS'translate.google.be'
p1631
I1
sS'www.skybrary.aero'
p1632
I1
sS'www.mediafire.com'
p1633
I1
sS'bemusedbackpacker.com'
p1634
I1
sS'sputniknews.com'
p1635
I102
sS'tmi.me'
p1636
I1
sS'www.euronews.com'
p1637
I2
sS'news.vice.com'
p1638
I10
sS'www.chroniclelive.co.uk'
p1639
I23
sS'www.thenews.pl'
p1640
I1
sS'deepresource.wordpress.com'
p1641
I3
sS'www.emirates247.com'
p1642
I3
sS'www.enca.com'
p1643
I6
sS'www.iol.co.za'
p1644
I2
sS'm.news.viva.co.id'
p1645
I1
sS'www.inside.com'
p1646
I2
sS'www.channel4.com'
p1647
I2
sS'nigeriancommercialaviationnews-news.blogspot.com'
p1648
I1
sS'photos.denverpost.com'
p1649
I2
sS'thefusejoplin.com'
p1650
I2
sS'www.pprune.org'
p1651
I7
sS'maps.yandex.com'
p1652
I1
sS'www.csmonitor.com'
p1653
I4
sS'irpi.eu'
p1654
I1
sS'www.academia.edu'
p1655
I1
sS'www.daijiworld.com'
p1656
I2
sS'orientalreview.org'
p1657
I3
sS'benjaminfulford.typepad.com'
p1658
I1
sS'captainstarkiller.blogspot.com'
p1659
I1
sS'vladimirsuchan.blogspot.co.uk'
p1660
I1
sS'petitions.whitehouse.gov'
p1661
I1
sS'larouchepac.com'
p1662
I1
sS'www.texemarrs.com'
p1663
I1
sS'q13fox.com'
p1664
I4
sS'paper.li'
p1665
I4
sS'qz8501.airasia.com'
p1666
I1
sS'blikopnosjournaal.blogspot.nl'
p1667
I3
sS'echo.msk.ru'
p1668
I1
sS'www.truth-out.org'
p1669
I1
sS'escalatoroverthehill.com'
p1670
I2
sS'qz8501.bookofresearch.com'
p1671
I1
sS'ukraineatwar.blogspot.de'
p1672
I1
sS'www.krilovastelfox.co.u'
p1673
I1
sS'www.ntsb.gov'
p1674
I1
sS'www.yahoo.com'
p1675
I1
sS'plus.google.com'
p1676
I5
sS'www.globalresearch.ca'
p1677
I49
sS'www.adelaidenow.com.au'
p1678
I3
sS'www.anpfoto.nl'
p1679
I2
sS'www.gospelherald.com'
p1680
I1
sS'www.crowdmapped.com'
p1681
I1
sS'indiatoday.intoday.in'
p1682
I2
sS'www.infowars.com'
p1683
I14
sS'warisacrime.org'
p1684
I1
sS'graphics.thomsonreuters.com'
p1685
I2
sS'leomashariki.wordpress.com'
p1686
I1
sS'solidarity-now.com'
p1687
I1
sS'malaysiandigest.co'
p1688
I2
sS'www.forexwow.com'
p1689
I2
sS'www.frontpagemag.com'
p1690
I1
sS'eng.mynewshub.cc'
p1691
I9
sS'www.consumeraffairs.com'
p1692
I1
sS'www.dw.de'
p1693
I6
sS'bodhita.com'
p1694
I1
sS'www.examiner.com'
p1695
I4
sS'airasiaqz8501.com'
p1696
I1
sS'thedailyscholar.com'
p1697
I1
sS'www.kp.ru'
p1698
I7
sS'news.yahoo.com'
p1699
I20
sS'readersupportednews.org'
p1700
I1
sS'audiomir.info'
p1701
I1
sS'australiansunited.com'
p1702
I1
sS'en.annahar.com'
p1703
I5
sS'www.worldbulletin.net'
p1704
I2
sS'www.netherlandsmission.org'
p1705
I1
sS'ymlp.com'
p1706
I1
sS'slavyangrad.de'
p1707
I1
sS'www.malaysiaairlines.com'
p1708
I1
sS'www.wort.lu'
p1709
I1
sS'willbord.com'
p1710
I2
sS'www.telesurtv.net'
p1711
I2
sS'www.facebook.com'
p1712
I66
sS'Uinterview.co'
p1713
I1
sS'www.liv.asn.au'
p1714
I1
sS'www.dailybrew.com'
p1715
I1
sS'www.stasiareport.com'
p1716
I4
sS'www.bullionstar.com'
p1717
I1
sS'm.news24.com'
p1718
I1
sS'www.latterlymagazine.com'
p1719
I1
sS'radioon.out.airtime.pro:8000'
p1720
I1
sS'www.marathisanmaan.com'
p1721
I1
sS'www.staance.com'
p1722
I1
sS'www.iafei.org'
p1723
I1
sS'www.dailystar.co.uk'
p1724
I2
sS'translate.google.pl'
p1725
I4
sS'www.smh.com.au'
p1726
I40
sS'americasdonewrongs.blogspot.com'
p1727
I5
sS'duckduckgo.com'
p1728
I1
sS'meduza.io'
p1729
I1
sS'news.liputan6.com'
p1730
I1
sS'russialist.org'
p1731
I1
sS'www.financialexpress.com'
p1732
I2
sS'ireport.cnn.com'
p1733
I6
sS'www.flap152.com'
p1734
I1
sS'www.popularmechanics.com'
p1735
I1
sS'stopimperialism.org'
p1736
I1
sS'theconversation.com'
p1737
I2
sS'cbsn.cbsnews.com'
p1738
I1
sS'mycrazyheadlines.blogspot.ru'
p1739
I1
sS'www.docdroid.net'
p1740
I3
sS'thehollywood5.com'
p1741
I1
sS'blogs.abc.net.au'
p1742
I1
sS'www.hkstrategies.com'
p1743
I1
sS'rbth.com'
p1744
I1
sS'therightscoop.com'
p1745
I1
sS'm.firstpost.com'
p1746
I2
sS'img1.1tv.ru'
p1747
I1
sS'censorednewsnow.co'
p1748
I1
sS'yahoonewsdigest-intl.tumblr.com'
p1749
I15
sS'cyberplotters.com'
p1750
I1
sS'www.msn.com'
p1751
I1
sS'www.airlive.net'
p1752
I28
sS'www.dagelijksestandaard.nl'
p1753
I1
sS'airlinenews.asia'
p1754
I2
sS'uk.reuters.com'
p1755
I9
sS'www.afr.com'
p1756
I2
sS'ukrainecrisisanamericandisaster.blogspot.com'
p1757
I5
sS'www.abc.net.au'
p1758
I42
sS'www.nu.nl'
p1759
I3
sS'www.readfulapp.com'
p1760
I1
sS'www.bild.de'
p1761
I1
sS'www.worldbulletin.ne'
p1762
I1
sS'www.pakistancourant.com'
p1763
I1
sS'www.eturbonews.com'
p1764
I1
sS'www.eppgroup.eu'
p1765
I1
sS'www.americanphotomag.com'
p1766
I1
sS'www.businessinsider.com'
p1767
I5
sS'uk.wikipedia.org'
p1768
I1
sS'theaviationist.com'
p1769
I1
sS'irenecaesar.wordpress.com'
p1770
I1
sS'pravdanews.info'
p1771
I1
sS'www.mk.ru'
p1772
I1
sS'www.openculture.com'
p1773
I1
sS'www.aol.com'
p1774
I4
sS'colonelcassad.livejournal.com'
p1775
I2
sS'ConservativeReport.org'
p1776
I2
sS'www.beritasatu.com'
p1777
I1
sS'www.scribd.com'
p1778
I1
sS'www.intellihub.com'
p1779
I4
sS'www.4thmedia.org'
p1780
I4
sS'www.novinky.cz'
p1781
I1
sS'www.rumormillnews.com'
p1782
I1
sS'rinf.com'
p1783
I9
sS'dosie.su'
p1784
I3
sS'toyeenbalogun.blogspot.com'
p1785
I15
sS'libertas.bz'
p1786
I1
sS'uk.mobile.reuters.com'
p1787
I2
sS'roberterkelens.wordpress.com'
p1788
I1
sS'www.tnp.sg'
p1789
I20
sS'liveuamap.com'
p1790
I10
sS'www.gcreport.com'
p1791
I1
sS'www.perthnow.com.au'
p1792
I5
sS'rusila.su'
p1793
I2
sS'professorsblogg.com'
p1794
I2
sS'blogs.news.com.au'
p1795
I1
sS'www.basarnas.go.id'
p1796
I1
sS'fortruss.blogspot.de'
p1797
I1
sS'www.skankworks.net'
p1798
I1
sS'therealsingapore.com'
p1799
I1
sS'm.thenation.com'
p1800
I1
sS'myjour.com'
p1801
I1
sS'www.matthewaid.com'
p1802
I1
sS'fly.historicwings.com'
p1803
I1
sS'nasional.news.viva.co.id'
p1804
I4
sS'www.thesundaytimes.co.uk'
p1805
I4
sS'www.etsy.com'
p1806
I1
sS'news.abnxcess.com'
p1807
I1
sS'workingmumy.blogspot.com'
p1808
I1
sS'globalnews.ca'
p1809
I9
sS'video.news.ninemsn.com.au'
p1810
I3
sS'www.ibtimes.com'
p1811
I7
sS'funkyimg.com'
p1812
I1
sS'fairdinkumradio.com'
p1813
I1
sS'www.nationmultimedia.com'
p1814
I2
sS'yahs.ru'
p1815
I1
sS'yahoonewsdigest-us.tumblr.com'
p1816
I2
sS'milfuegos.blogspot.jp'
p1817
I1
sS'www.duckonwheels.com'
p1818
I2
sS'www.dailyjournal.net'
p1819
I1
sS'www.spiritualresearchfoundation.org'
p1820
I1
sS'khpg.or'
p1821
I1
sS'newslocal.newspaperdirect.com'
p1822
I1
sS'www.franchiseherald.com'
p1823
I1
sS'www.unz.com'
p1824
I1
sS'www.thedailybeast.com'
p1825
I3
sS'nos.nl'
p1826
I23
sS'news360.com'
p1827
I1
sS'www.lay-out.gr'
p1828
I1
sS'fortruss.blogspot.co.uk'
p1829
I1
sS'www.bea.aero'
p1830
I1
sS'www.rightnow.io'
p1831
I8
sS'7mei.nl'
p1832
I16
sS'russiavsworld.com'
p1833
I1
sS'mutsol.com'
p1834
I1
sS'www.inquisitr.com'
p1835
I8
sS'www.cnn.com'
p1836
I51
sS'www.japantimes.co'
p1837
I1
sS'bigstory.ap.org'
p1838
I8
sS'www.beriev.com'
p1839
I1
sS'one-europe.info'
p1840
I1
sS'gist.github.com'
p1841
I1
sS'www.blacklistednews.com'
p1842
I1
sS'pimdekuijerlezing.n'
p1843
I1
sS'www.airbus.com'
p1844
I1
sS'time.com'
p1845
I8
sS'xhgj.mobile.zhongguowangshi.com:8090'
p1846
I1
sS'blueforcetracker.com'
p1847
I1
sS'www.anderweltonline.com'
p1848
I3
sS'www.worldaffairsjournal.org'
p1849
I1
sS'www.geenstijl.nl'
p1850
I6
sS'skibinsky.com'
p1851
I1
sS'www.zerohedge.com'
p1852
I20
sS'www.thewire.com'
p1853
I1
sS'ictmax.org'
p1854
I1
sS'www.countercurrents.org'
p1855
I2
sS'tweetedtimes.com'
p1856
I1
sS'friendsofsyria.co'
p1857
I1
sS'instagram.com'
p1858
I35
sS'start7mei.files.wordpress.com'
p1859
I1
sS'www.voltairenet.org'
p1860
I6
sS'eandt.theiet.org'
p1861
I1
sS'www.rferl.org'
p1862
I13
sS'mycrazyheadlines.blogspot.com'
p1863
I7
sS'www.ketknbc.com'
p1864
I1
sS'www.icao.int'
p1865
I1
sS'humansarefree.com'
p1866
I2
sS'blogs.wsj.com'
p1867
I6
sS'news.metrotvnews.com'
p1868
I6
sS'www.gerryairways.com'
p1869
I6
sS'stanvanhoucke.blogspot.com'
p1870
I1
sS'www.wereld-nieuws.com'
p1871
I1
sS'magdalene.co'
p1872
I1
sS'utr.tv'
p1873
I1
sS'blackbag.gawker.com'
p1874
I1
sS'www.euractiv.com'
p1875
I1
sS'nypost.com'
p1876
I4
sS'en.m.wikipedia.org'
p1877
I2
sS'translate.google.com'
p1878
I23
sS'esriid.maps.arcgis.com'
p1879
I1
sS'www.emergencymgmt.com'
p1880
I1
sS'www.china.org.cn'
p1881
I9
sS'www.kgw.com'
p1882
I1
sS'www.igorstrelkov.ru'
p1883
I1
sS'www.vineyardsaker.net'
p1884
I2
sS'fortruss.blogspot.nl'
p1885
I4
sS'freebeacon.com'
p1886
I2
sS'www.inetwebsystems.com'
p1887
I2
sS'21stcenturywire.com'
p1888
I2
sS'www.guerardmedia.com'
p1889
I1
sS'm.ewn.co.za'
p1890
I1
sS'www.ibtimes.co.uk'
p1891
I12
sS'englishnews.thaipbs.or.th'
p1892
I9
sS'www.trunews.com'
p1893
I1
sS'presstv.com'
p1894
I1
sS'2014.twitter.com'
p1895
I1
sS'auntypru.com'
p1896
I1
sS'securityaffairs.co'
p1897
I1
sS'www.entrehub.org'
p1898
I1
sS'aanirfan.blogspot.co.uk'
p1899
I1
sS'www.shephardmedia.com'
p1900
I1
sS'indianexpress.com'
p1901
I3
sS'in.reuters.com'
p1902
I3
sS'www.rtlnieuws.nl'
p1903
I23
sS'www.chennaivision.com'
p1904
I1
sS'ukrainereferendum.blogspot.ro'
p1905
I1
sS'www.veteranstoday.com'
p1906
I12
sS'mashable.com'
p1907
I16
sS'www.unn.com.ua'
p1908
I1
sS'www.davidicke.com'
p1909
I3
sS'rguerardbooks.com'
p1910
I1
sS'www.punjabupdate.com'
p1911
I1
sS'ukraineatwar.blogspot.nl'
p1912
I8
sS'irmaschiffers2014.wordpress.com'
p1913
I1
sS'app.box.com'
p1914
I1
sS'ukraineatwar.blogspot.com.tr'
p1915
I1
sS'vid.staged.com'
p1916
I1
sS'truth-out.org'
p1917
I1
sS'blogs.crikey.com.au'
p1918
I19
sS'www.insiderdaily.info'
p1919
I1
sS'www.rijksoverheid.nl'
p1920
I2
sS'linkis.com'
p1921
I53
sS'www.rightpundits.com'
p1922
I1
sS'vineyardsaker.blogspot.com'
p1923
I3
sS'cassad-eng.livejournal.com'
p1924
I3
sS'airasiaqz8501.co'
p1925
I1
sS'pbs.twimg.com'
p1926
I6
sS'shoebat.com'
p1927
I1
sS'finance.yahoo.com'
p1928
I4
sS'wikidpr.org'
p1929
I7
sS'www.verticalmag.com'
p1930
I1
sS'www.hollywoodreporter.com'
p1931
I1
sS'novorossia.today'
p1932
I2
sS'www.tabletalk.io'
p1933
I1
sS'newsfirst.lk'
p1934
I1
sS'www.indiatimes.com'
p1935
I1
sS'rusvesna.su'
p1936
I1
sS'ukraineatwar.blogspot.co.uk'
p1937
I3
sS'www.ndtv.com'
p1938
I3
sS'www.sueddeutsche.de'
p1939
I1
sS'www.DoctorAdvice4u.co'
p1940
I1
sS'm.timesofindia.com'
p1941
I1
sS'www.thanhniennews.com'
p1942
I1
sS'vk.com'
p1943
I4
sS'www.buzzfeed.com'
p1944
I10
sS'maps.google.com'
p1945
I2
sS'uk.news.yahoo.com'
p1946
I1
sS'fr.sputniknews.com'
p1947
I1
sS'www.arabnews.com'
p1948
I2
sS'teori-sharifah-sofia.blogspot.com'
p1949
I1
sS'wakeupfromyourslumber.com'
p1950
I1
sS'russia-insider.com'
p1951
I40
sS'koningsandra1.wordpress.com'
p1952
I1
sS'ant-63.livejournal.com'
p1953
I1
sS'www.thestar.com.my'
p1954
I31
sS'tenplay.com.au'
p1955
I1
sS'www.topix.com'
p1956
I1
sS'news.airwise.com'
p1957
I12
sS'wyborcza.pl'
p1958
I1
sS'projectavalon.net'
p1959
I1
sS'tass.ru'
p1960
I57
sS'amp.twimg.com'
p1961
I1
sS'gantdaily.com'
p1962
I2
sS'www.n-tv.de'
p1963
I1
sS'www.rappler.com'
p1964
I26
sS'www.thenewscommenter.com'
p1965
I1
sS'houseofrepresentatives.cmail1.com'
p1966
I1
sS'www.kyivpost.com'
p1967
I36
sS'aviationweek.com'
p1968
I2
sS'www.brecorder.com'
p1969
I1
sS'engforum.pravda.ru'
p1970
I1
sS'reseauinternational.net'
p1971
I2
sS'one-just-world.blogspot.com'
p1972
I2
sS'diy.rootsaction.org'
p1973
I1
sS'www.pravda.r'
p1974
I1
sS'vineyardsaker.blogspot.com.br'
p1975
I2
sS'metro.co.uk'
p1976
I1
sS'www.theparliamentmagazine.eu'
p1977
I1
sS'ian56.blogspot.com'
p1978
I4
sS'www.kdramastars.com'
p1979
I2
sS'www.express.co.uk'
p1980
I1
sS'english.cri.cn'
p1981
I2
sS'www.todayonline.com'
p1982
I86
sS'kl.coconuts.co'
p1983
I1
sS'www.sbs.com.au'
p1984
I13
sS'flightchic.com'
p1985
I1
sS'www.presstv.com'
p1986
I2
sS'www.wcarn.com'
p1987
I10
sS'www.bt.com.bn'
p1988
I2
sS'www.5.ua'
p1989
I1
sS'www.latimes.com'
p1990
I7
sS'www.planespotters.net'
p1991
I1
sS'www.ifalpa.org'
p1992
I1
sS'edwardmd.wordpress.com'
p1993
I3
sS'www.change.org'
p1994
I1
sS'www.bubblews.com'
p1995
I3
sS'crisis20.net'
p1996
I1
sS'thetruthspeaker.co'
p1997
I2
sS'omoooduarere.blogspot.com'
p1998
I2
sS'apnews.myway.com'
p1999
I1
sS'wtvr.co'
p2000
I1
sS'm.theage.com.au'
p2001
I2
sS'www.aviationtoday.com'
p2002
I8
sS'terrorincorporated.blogspot.com'
p2003
I9
sS'exopolitics.blogs.com'
p2004
I1
sS'www.reuters.com'
p2005
I88
sS'www.flyertalk.com'
p2006
I1
sS'besmele9.wordpress.com'
p2007
I1
sS'www.tempo.co'
p2008
I4
sS'www.independent.ie'
p2009
I2
sS'www.lewrockwell.com'
p2010
I4
sS'social.newsinc.com'
p2011
I1
sS'www.avianews.com'
p2012
I1
sS'www.yogyapost.com'
p2013
I1
sS'www.ebay.com'
p2014
I1
sS'airtraveller.org'
p2015
I1
sS'www.slang-dictionary.org'
p2016
I1
sS'www.9jumpin.com.au'
p2017
I1
sS'www.whathappenedtoflightmh17.com'
p2018
I31
sS'www.jampact.net'
p2019
I1
sS'www.boeing.com'
p2020
I1
sS'orderoftruth.wordpress.com'
p2021
I1
sS'shuffleupon.com'
p2022
I2
sS'rijksoverheidnieuwsnederland.blogspot.com'
p2023
I1
sS'consciousshift2012.wordpress.com'
p2024
I1
sS'www.suara.com'
p2025
I1
sS'militaryMaps.info?lat=48.1409056&lng=38.2575757&z=12&t='
p2026
I1
sS'www.politico.com'
p2027
I2
sS'alethonews.wordpress.com'
p2028
I2
sS'audioboom.com'
p2029
I2
sS'www.seaaustralia.com'
p2030
I1
sS'www.thepeoplesvoice.org'
p2031
I1
sS'malaysia.yahoo.com'
p2032
I1
sS'shillingcoins.or'
p2033
I1
sS'www.webcorenigeria.co'
p2034
I1
sS'www.ctvnews.ca'
p2035
I6
sS'www.hurriyetdailynews.com'
p2036
I2
sS'scottlocklin.wordpress.com'
p2037
I1
sS'www.thesun.co.uk'
p2038
I2
sS'www.qatarday.com'
p2039
I1
sS'www.aparchive.com'
p2040
I1
sS'www.mondialisation.ca'
p2041
I1
sS'www.cbsnews.com'
p2042
I11
sS'www.techdirt.com'
p2043
I1
sS'Daijiworld.com'
p2044
I1
sS'www.hindustantimes.com'
p2045
I7
sS'politicalvelcraft.org'
p2046
I2
sS'amf.so'
p2047
I1
sS'climateviewer.com'
p2048
I1
sS'm.english.astroawani.com'
p2049
I4
sS'www.focus-fen.net'
p2050
I1
sS'im.rediff.com'
p2051
I1
sS'video.viva.co.id'
p2052
I4
sS'isobelblackthorn.wordpress.com'
p2053
I2
sS'www.godlikeproductions.com'
p2054
I1
sS'www.janes.com'
p2055
I3
sS'www.zeit.de'
p2056
I2
sS'www.abs-cbnnews.com'
p2057
I2
sS'www.asean.org'
p2058
I1
sS'www.3dotnews.com'
p2059
I2
sS'www.brisbanetimes.com.au'
p2060
I1
sS'surabaya.bisnis.com'
p2061
I1
sS'thejakartaglobe.beritasatu.com'
p2062
I29
sS'swf.tubechop.com'
p2063
I1
sS'www.huffingtonpost.co.uk'
p2064
I4
sS'jeffwise.net'
p2065
I3
sS'm.atwonline.com'
p2066
I3
sS'ww1.gooiley.co'
p2067
I1
sS'defendressofsanity81.wordpress.com'
p2068
I2
sS'xin.msn.com'
p2069
I5
sS'current.ly'
p2070
I2
sS'www.pm.gov.au'
p2071
I1
sS'www.illawarramercury.com.au'
p2072
I2
sS'niume.com'
p2073
I1
sS'rense.com'
p2074
I1
sS'www.rferl.mobi'
p2075
I1
sS'www.theedgemarkets.com'
p2076
I1
sS'en.cyplive.com'
p2077
I2
sS'www.google.com'
p2078
I4
sS'www.whitehouse.gov'
p2079
I2
sS'storify.com'
p2080
I5
sS'windowoneurasia2.blogspot.com'
p2081
I1
sS'www.bloomberg.com'
p2082
I29
sS'www.newsweek.com'
p2083
I13
sS'www.insuranceday.com'
p2084
I2
sS'sglinks.com'
p2085
I10
sS'www.khaleejtimes.com'
p2086
I2
sS'sg.news.yahoo.com'
p2087
I72
sS'euromaidanpress.com'
p2088
I8
sS'www.liveleak.com'
p2089
I19
sS'ow.ly'
p2090
I3
sS'www.mmail.com.my'
p2091
I1
sS'ConservativeReport.Org'
p2092
I1
sS'in.sputniknews.com'
p2093
I1
sS'jungledrum.hopto.org'
p2094
I1
sS'www.inetwebsystems.co'
p2095
I2
sS'crazymotts.blogspot.in'
p2096
I2
sS'www.ainonline.com'
p2097
I3
sS'zoek.officielebekendmakingen.nl'
p2098
I1
sS'sa.uploads.ru'
p2099
I2
sS'www.dailypaul.com'
p2100
I3
sS'www.bbc.com'
p2101
I42
sS'www.nzherald.co.nz'
p2102
I3
sS'burkonews.info'
p2103
I3
sS'www.amazon.com'
p2104
I2
sS'www.breitbart.com'
p2105
I2
sS'russ-history.blogspot.ru'
p2106
I2
sS'www.transec.com'
p2107
I1
sS'thesaker.is'
p2108
I3
sS'www.mycomfor.com'
p2109
I1
sS'sg.finance.yahoo.com'
p2110
I4
sS'en.trend.az'
p2111
I1
sS'www.therakyatpost.com'
p2112
I8
sS'www.cbc.ca'
p2113
I11
sS'www.dutchnews.nl'
p2114
I4
sS'mic.com'
p2115
I1
sS'cilisos.my'
p2116
I2
sS'haralddoornbos.wordpress.com'
p2117
I1
sS'presstv.ir'
p2118
I1
sS'www.canoe.ca'
p2119
I1
sS'activistrevolution.weebly.com'
p2120
I1
sS'www.itv.com'
p2121
I7
sS'www.asianewsnet.net'
p2122
I2
sS'www.lrb.co.uk'
p2123
I1
sS'www.navy.mil'
p2124
I3
sS'www.antaranews.com'
p2125
I2
sS'www.marcelstraver.nl'
p2126
I1
sS'www.mathaba.net'
p2127
I1
sS'www.theatlantic.com'
p2128
I2
sS'www.envirosagainstwar.org'
p2129
I1
sS'worldairlinenews.com'
p2130
I1
sS'www.theecologist.org'
p2131
I2
sS'zeeklytv.com'
p2132
I2
sS'www.pressenza.com'
p2133
I1
sS'link.brightcove.com'
p2134
I1
sS'abcnews.go.com'
p2135
I8
sS'jhaines6.wordpress.com'
p2136
I2
sS'flightaware.com'
p2137
I1
sS'nr.news-republic.com'
p2138
I14
sS'www.radio-on-berlin.com'
p2139
I1
sS'www.dumpert.nl'
p2140
I1
sS'xandernieuws.punt.nl'
p2141
I1
sS'says.com'
p2142
I5
sS'www.forbes.com'
p2143
I7
sS'nation.com.pk'
p2144
I1
sS'nogodbutallah1.blogspot.co'
p2145
I1
sS'nosint.blogspot.fi'
p2146
I1
sS'thedailystar.net'
p2147
I1
sS'ca.news.yahoo.com'
p2148
I1
sS'rtd.rt.com'
p2149
I4
sS'm.facebook.com'
p2150
I5
sS'globalvoicesonline.org'
p2151
I6
sS'susandirgham.wordpress.com'
p2152
I1
sS'de.sputniknews.com'
p2153
I3
sS'www.dailystar.com.lb'
p2154
I7
sS'vine.co'
p2155
I3
sS'news.asiaone.com'
p2156
I10
sS'humanrightsinvestigations.org'
p2157
I1
sS'nampuom-pycu.livejournal.com'
p2158
I1
sS'truthseekerdaily.co'
p2159
I1
sS'www.institutionalinvestor.com'
p2160
I1
sS'www.gmanetwork.com'
p2161
I2
sS'debunkistan.blogspot.nl'
p2162
I1
sS'au.ibtimes.com'
p2163
I5
sS'www.vieuws.eu'
p2164
I1
sS'www.stuff.co.nz'
p2165
I6
sS'redstatements.co'
p2166
I1
sS'www.freepressjournal.in'
p2167
I1
sS'flashcritic.com'
p2168
I1
sS'sherriequestioningall.blogspot.de'
p2169
I1
sS'www.dawn.com'
p2170
I1
sS'9gag.com'
p2171
I1
sS'www.paradigmslip.ca'
p2172
I1
sS'www.myfoxboston.com'
p2173
I1
sS'pzfeed.com'
p2174
I1
sS'themadjewess.net'
p2175
I1
sS'www.wikileaks-forum.com'
p2176
I2
sS'osce.usmission.gov'
p2177
I1
sS'www.kompas.com'
p2178
I1
sS'www.vineyardsaker.co.nz'
p2179
I2
sS'bleacherreport.com'
p2180
I1
sS'imagehost.spark-media.ru'
p2181
I1
sS'www.govtrack.us'
p2182
I1
sS'espressowithpavel.wordpress.com'
p2183
I6
sS'drive.google.com'
p2184
I1
sS'mh17.eenvandaag.nl'
p2185
I1
sS'carpepoints.com'
p2186
I1
sS'www.ihsairport360.com'
p2187
I1
sS'thehill.com'
p2188
I1
sS'www.vz.ru'
p2189
I2
sS'www.ridus.ru'
p2190
I2
sS'ukraineatwar.blogspot.fi'
p2191
I2
sS'ria.ru'
p2192
I6
sS'www.theweek.co.uk'
p2193
I1
sS'medium.com'
p2194
I2
sS'www.poynter.org'
p2195
I2
sS'www.geoengineeringwatch.org'
p2196
I1
sS'm-v-reshetnikov.livejournal.com'
p2197
I4
sS'www.thehindu.com'
p2198
I3
sS'rt.com'
p2199
I149
sS'censor.net.ua'
p2200
I2
sS'www.eur.army.mil'
p2201
I1
sS'www.anwarverdict.ml'
p2202
I1
sS'm.bbc.co.uk'
p2203
I7
sS'singapore.coconuts.co'
p2204
I1
sS'www.9news.com.au'
p2205
I26
sS'www.nbcnews.com'
p2206
I20
sS'www.merdeka.com'
p2207
I1
sS'terrorincorporated.blogspot.ch'
p2208
I1
sS'www.pinterest.com'
p2209
I1
sS'malaysia-chronicle.com'
p2210
I1
sS'maailm.postimees.ee'
p2211
I1
sS'mobile.news.com.au'
p2212
I3
sS'www.powned.tv'
p2213
I1
sS'reporter.kro.nl'
p2214
I1
sS'wric.com'
p2215
I3
sS'journal-neo.org'
p2216
I5
sS'fandagear.ga'
p2217
I1
sS'naughteeismaxim.blogspot.com'
p2218
I1
sS'news.talk.ee'
p2219
I1
sS'militarytechcooperations.wordpress.com'
p2220
I2
sS'www.joepandjacqueline.or'
p2221
I1
sS'www.standaard.be'
p2222
I1
sS'massispost.com'
p2223
I1
sS'lifenews.ru'
p2224
I1
sS'www.ecfr.eu'
p2225
I2
sS'SLAVYANGRAD.or'
p2226
I1
sS'dannymekic.com'
p2227
I1
sS'www.telegraph.co.uk'
p2228
I27
sS'michaelwyres.com'
p2229
I2
sS'www.globaltimes.cn'
p2230
I1
sS'www.redstar.gr'
p2231
I1
sS'www.channelnewsasia.com'
p2232
I142
sS'www.gulf-times.com'
p2233
I14
sS'www.businesstimes.com.sg'
p2234
I24
sS'www.newsnation.in'
p2235
I2
sS'thenews.pl'
p2236
I1
sS'www.heart.co.uk'
p2237
I1
sS'm.tvnz.co.nz'
p2238
I1
sS'mobile.dudamobile.com'
p2239
I1
sS'english.farsnews.com'
p2240
I1
sS'tinyurl.com'
p2241
I1
sS'xrepublic.tv'
p2242
I1
sS'www.wattpad.com'
p2243
I1
sS'flipboard.com'
p2244
I1
sS'edition.cnn.com'
p2245
I42
sS'www.wired.co.uk'
p2246
I1
sS'jethead.wordpress.com'
p2247
I1
sS'www.newyorker.com'
p2248
I1
sS'secure.avaaz.org'
p2249
I4
sS'pressimus.com'
p2250
I1
sS'mid.ru'
p2251
I1
sS'en.tempo.co'
p2252
I1
sS'www.NewsWatchCanada.c'
p2253
I2
sS'www.wsws.org'
p2254
I6
sS'www.dcclothesline.com'
p2255
I1
sS'ukrainewarlog.blogspot.com'
p2256
I2
sS'www.flightglobal.com'
p2257
I17
sS'robinwestenra.blogspot.com'
p2258
I1
sS'www.dvidshub.net'
p2259
I5
sS'albloggedup-investigative.blogspot.com'
p2260
I1
sS'www.cjr.org'
p2261
I1
sS'www.dierotepille.com'
p2262
I2
sS'www.oneindia.com'
p2263
I2
sS'rage.com.my'
p2264
I1
sS'www.radio1.nl'
p2265
I1
sS'www.chicagotribune.com'
p2266
I3
sS'www.niemanlab.org'
p2267
I1
sS'tribune.com.pk'
p2268
I3
sS'mondbasis.com'
p2269
I1
sS'www.imra.org.il'
p2270
I1
sS'www.mfs-theothernews.com'
p2271
I1
sS'www.theepochtimes.com'
p2272
I3
sS'vineyardsaker.blogspot.pt'
p2273
I1
sS'nsnbc.me'
p2274
I5
sS'german.irib.ir'
p2275
I1
sS'www.coosto.com'
p2276
I2
sS'www.livemint.com'
p2277
I1
sS'www.washingtonsblog.com'
p2278
I10
sS'tekno.kompas.com'
p2279
I1
sS'www.mediapart.fr'
p2280
I1
sS'arynews.tv'
p2281
I4
sS'www.malaysiandigest.com'
p2282
I9
sS'www.investing.com'
p2283
I1
sS'ronaldthomaswest.com'
p2284
I1
sS'radioplayer.westsoundradio.com'
p2285
I1
sS'openermedia.blogspot.com'
p2286
I1
sS'CyberPlotters.co'
p2287
I1
sS'thebricspost.com'
p2288
I1
sS'sptimes.ru'
p2289
I1
sS'povnatorba.blogspot.com'
p2290
I1
sS'mobile.reuters.com'
p2291
I19
sS'belsat.eu'
p2292
I2
sS'www.globalpost.com'
p2293
I4
sS'volafile.io'
p2294
I1
sS'www.stopfake.org'
p2295
I3
sS'www.storyfic.com'
p2296
I1
sS'bellingcat.checkdesk.org'
p2297
I1
sS'birdflu666.wordpress.com'
p2298
I1
sS'www.dailysabah.com'
p2299
I1
sS'anton-shekhovtsov.blogspot.com.au'
p2300
I1
sS'ukraineatwar.blogspot.com'
p2301
I6
sS'www.saddahaq.com'
p2302
I1
sS'www.usnews.com'
p2303
I2
sS'www.wsj.com'
p2304
I63
sS'fortruss.blogspot.fr'
p2305
I1
sS'news.sky.com'
p2306
I13
sS'www.heraldsun.com.au'
p2307
I8
sS'www.turnto23.com'
p2308
I1
sS'i.instagram.com'
p2309
I2
sS'www.mirror.co.uk'
p2310
I10
sS'navalny.com'
p2311
I1
sS'www.nrcu.gov.ua'
p2312
I1
sS'www.hlntv.com'
p2313
I4
sS'futuristrendcast.wordpress.com'
p2314
I4
sS'www.straitstimes.co'
p2315
I1
sS'www.aerotime.aero'
p2316
I1
sS'www.travelagentcentral.com'
p2317
I1
sS'vladimirsuchan.blogspot.com'
p2318
I2
sS'lenta.ru'
p2319
I1
sS'mea.gov.in'
p2320
I1
sS'fortruss.blogspot.ae'
p2321
I1
sS'www.ibtimes.co.in'
p2322
I1
sS'matterbetter.com'
p2323
I1
sS'stoprisk.page.tl'
p2324
I1
sS'en.censor.net.ua'
p2325
I2
sS'takeitorleaveittruth.blogspot.com'
p2326
I2
sS'www.eurocontrol.int'
p2327
I1
sS'I.instgram.com'
p2328
I1
sS'www.pisau.net'
p2329
I1
sS'www.tagesspiegel.de'
p2330
I1
sS'zeenews.india.com'
p2331
I4
sS'24today.net'
p2332
I3
sS'www.newstwee.com'
p2333
I2
sS'uatoday.t'
p2334
I1
sS'www.1tv.ru'
p2335
I2
sS'archive.today'
p2336
I1
sS'hype.my'
p2337
I3
sS'uprootedpalestinians.wordpress.com'
p2338
I13
sS'fortruss.blogspot.com'
p2339
I2
sS'deutsche-wirtschafts-nachrichten.de'
p2340
I1
sS'acloserlookonsyria.shoutwiki.com'
p2341
I1
sS'www.scmp.com'
p2342
I9
sS'www.flickr.com'
p2343
I11
sS'english.astroawani.com'
p2344
I45
sS'www.malaysia-today.net'
p2345
I2
sS'www.onderzoeksraad.nl'
p2346
I11
sS'www.crikey.com.au'
p2347
I1
sS'zyalt.livejournal.com'
p2348
I2
sS'bnonews.com'
p2349
I1
sS'landdestroyer.blogspot.co.uk'
p2350
I1
sS'www.state.gov'
p2351
I1
sS'www.raischstudios.com'
p2352
I2
sS'www.ukrinform.ua'
p2353
I1
sS'malaysiatravelnews.com'
p2354
I2
sS'www.ihsmaritime360.com'
p2355
I1
sS'www.aljazeera.com'
p2356
I4
sS'yournewswire.com'
p2357
I10
sS'www.commondreams.org'
p2358
I1
sS'www.puisina.com'
p2359
I2
sS'www.airtrafficmanagement.net'
p2360
I2
sS'www.eurozine.com'
p2361
I1
sS'www.malaysiakini.com'
p2362
I33
sS'www.irishexaminer.com'
p2363
I2
sS'www.bustle.com'
p2364
I1
sS'slavyangrad.org'
p2365
I6
sS'www.aug21st.com'
p2366
I1
sS'www.dailyexpress.com.my'
p2367
I1
sS'mobile.nytimes.com'
p2368
I1
sS'cyber-berkut.org'
p2369
I2
sS'www.nydailynews.com'
p2370
I2
sS'wnrt.worldnewsradio.today'
p2371
I2
sS'mh17.correctiv.org'
p2372
I10
sS'consumers.ofcom.org.uk'
p2373
I1
sS'rbth.co.uk'
p2374
I2
sS'www.utiket.com.my'
p2375
I1
sS'm.bazaardaily.co.uk'
p2376
I3
sS'imgur.com'
p2377
I1
sS'www.stelling.nl'
p2378
I1
sS'twileshare.com'
p2379
I1
sS'fortruss.blogspot.ca'
p2380
I1
sS'vineyardsaker.blogspot.com.au'
p2381
I1
sS'rickrozoff.wordpress.com'
p2382
I1
sS'm.heraldsun.com.au'
p2383
I1
sS'news.nationalpost.com'
p2384
I2
sS'www.themoscowtimes.com'
p2385
I24
sS'newsinfo.inquirer.net'
p2386
I14
sS'vod.tvp.pl'
p2387
I1
sS'theboar.org'
p2388
I2
sS'www.theaustralian.com.au'
p2389
I25
sS'www.rich.co.ke'
p2390
I2
sS'www.newrepublic.com'
p2391
I1
sS'inforesist.org'
p2392
I2
sS'digitaledition.philstar.com'
p2393
I3
sS'english.alarabiya.net'
p2394
I2
sS'ukok.page.tl'
p2395
I3
sS'toinformistoinfluence.com'
p2396
I1
sS'dimosiografos.wordpress.com'
p2397
I1
sS'www.economist.com'
p2398
I2
sS'conspiracytheory.mybb.ru'
p2399
I1
sS'www.propublica.org'
p2400
I1
sS'pontiactribune.com'
p2401
I2
sS'shitsgottastop.wordpress.com'
p2402
I1
sS'timesofindia.indiatimes.com'
p2403
I4
sS'mobile.abc.net.au'
p2404
I6
sS'www.themalaymailonline.com'
p2405
I50
sS'www.theantdaily.com'
p2406
I1
sS'circanews.com'
p2407
I2
sS'adam1baum.blogspot.com'
p2408
I4
sS'gulfnews.com'
p2409
I3
sS'peoplestrustmalaysia.wordpress.com'
p2410
I8
sS'www.correctiv.org'
p2411
I1
sS'www.airlineratings.com'
p2412
I4
sS'www.defensie.nl'
p2413
I1
sS'svobodaslova.info'
p2414
I1
sS'www.theguardian.com'
p2415
I51
sS'www.thedailystar.net'
p2416
I2
sS'translate.google.ch'
p2417
I4
sS'benswann.com'
p2418
I1
sS'www.rtdeutsch.com'
p2419
I1
sS'www.foxnews.com'
p2420
I10
sS'ukraineatwar.blogspot.com.au'
p2421
I1
sS'dc.the-netherlands.org'
p2422
I1
sS'evanesce-girl.livejournal.com'
p2423
I1
sS'pdf.reuters.com'
p2424
I1
sS'www.thejakartapost.com'
p2425
I11
sS'm.strategic-culture.org'
p2426
I2
sS'boinnk.nl'
p2427
I1
sS'tvtropes.org'
p2428
I1
sS'freecriticalthinking.org'
p2429
I1
sS'www.belfasttelegraph.co.uk'
p2430
I1
sS'electrodes-h-sinclair-502.com'
p2431
I1
sS'loviv.com'
p2432
I1
sS'www.metabunk.org'
p2433
I3
sS'translate.google.co.uk'
p2434
I1
sS'malaysiandigest.com'
p2435
I5
sS'www.ibac.org'
p2436
I1
sS'whatsupic.com'
p2437
I1
sS'truth11.com'
p2438
I1
sS'avia.biz.ua'
p2439
I1
sS'www.ft.com'
p2440
I6
sS'www.supernoder.com'
p2441
I4
sS'video.cnbc.com'
p2442
I1
sS'www.dca.gov.my'
p2443
I1
sS'en.interfax.com.ua'
p2444
I3
sS'adam-baum.tumblr.com'
p2445
I1
sS'spenden.correctiv.org'
p2446
I1
sS'www.australiannationalreview.com'
p2447
I1
sS'www.volkskrant.nl'
p2448
I1
sS'www.youtube.com'
p2449
I558
sS'translate.google.de'
p2450
I1
sS'ws-dl.blogspot.com'
p2451
I2
sS'en.wikipedia.org'
p2452
I8
sS'news.biharprabha.com'
p2453
I1
sS'3dotnews.com'
p2454
I2
sS'www.washingtonpost.com'
p2455
I18
sS'obkon.ucoz.com'
p2456
I4
sS'ac360.blogs.cnn.com'
p2457
I2
sS'russian.rt.com'
p2458
I1
sS'www.storehouse.co'
p2459
I3
sS'novororssiyaupdates.blogspot.com'
p2460
I1
sS'www.scoop.it'
p2461
I5
sS'www.wnd.com'
p2462
I1
sS'www.wired.com'
p2463
I1
sS'www.amnesty.org'
p2464
I1
sS'www.fliegerlaw.com'
p2465
I1
sS'davidstockmanscontracorner.com'
p2466
I1
sS'RT.co'
p2467
I1
sS'www.slate.com'
p2468
I2
sS'www.tweedekamer.nl'
p2469
I1
sS'www.opednews.com'
p2470
I14
sS'www.government.nl'
p2471
I4
sS'euobserver.com'
p2472
I1
sS'de.scribd.com'
p2473
I1
sS'www.straitstimes.com'
p2474
I97
sS'yearinfocus.gettyimages.com'
p2475
I1
sS'nasional.kompas.com'
p2476
I4
sS'karlenepetitt.blogspot.com'
p2477
I1
sS'www.unian.net'
p2478
I1
sS'www.bbc.co.uk'
p2479
I99
sS'www.jihadwatch.org'
p2480
I1
sS'www.stol.it'
p2481
I1
sS'www.eurotopics.net'
p2482
I1
sS'www.thetimes.co.uk'
p2483
I1
sS'www.mid.ru'
p2484
I1
sS'the3006cafe.org'
p2485
I1
sS'www.spiegel.de'
p2486
I14
sS'roymalashev.wix.com'
p2487
I1
sS'mw.ua'
p2488
I1
sS'news.detik.com'
p2489
I11
sS'www.zippednews.com'
p2490
I7
sS'www.cyber-berkut.org'
p2491
I1
sS'i100.independent.co.uk'
p2492
I1
sS'ukrainianchi.com'
p2493
I1
sS'blessedistruth.wordpress.com'
p2494
I1
sS'www.stewartslaw.com'
p2495
I1
sS'us.india.com'
p2496
I1
sS'globalresearch.ca'
p2497
I2
sS'uInterview.co'
p2498
I1
sS'whatreallyhappened.com'
p2499
I3
sS'www.regnum.ru'
p2500
I1
sS'fakemalaysianews.com'
p2501
I1
sS'belsec.skynetblogs.be'
p2502
I1
sS'www.freemalaysiatoday.com'
p2503
I24
sS'totalFreqs'
p2504
I8351
sS'www.watoday.com.au'
p2505
I5
sS'www.legitgov.org'
p2506
I1
sS'survivalbackpack.us'
p2507
I1
sS'www.niburu.co'
p2508
I1
sS'www.globalsecurity.org'
p2509
I1
sS'i.imgur.com'
p2510
I1
sS'm.thestar.com'
p2511
I2
sS'twitter.com'
p2512
I2537
sS'www.buoyweather.com'
p2513
I1
sS'VK.co'
p2514
I1
sS'www.thesundaily.my'
p2515
I6
sS'stockinfocus.ru'
p2516
I1
sS'www.france24.com'
p2517
I1
sS'goedenieuws.nl'
p2518
I1
sS'en.ua-today.com'
p2519
I1
sS'www.innercitypress.com'
p2520
I1
sS'blogs.kcl.ac.uk'
p2521
I1
sS'news.google.com'
p2522
I1
sS'usa.mfa.gov.ua'
p2523
I1
sS'www.metroradio.co.uk'
p2524
I1
sS'www.freitag.de'
p2525
I1
sS'www.abplive.in'
p2526
I2
sS'www.abovetopsecret.com'
p2527
I1
sS'alphacommedia.com'
p2528
I1
sS'www.huffingtonpost.com'
p2529
I5
sS'www.phillip-butler.com'
p2530
I1
sS'theiranproject.com'
p2531
I1
sS'sjlendman.blogspot.com'
p2532
I2
sS'4bitnews.com'
p2533
I5
sS'philsreport.blogspot.com'
p2534
I2
sS'bobstruth.blogspot.com'
p2535
I1
sS'nollyprott.wordpress.com'
p2536
I1
sS'm.tmi.me'
p2537
I1
sS'libertariannation.com'
p2538
I3
sS'www.ad.nl'
p2539
I6
sS'www.3news.co.nz'
p2540
I2
sS'eyreinternational.wordpress.com'
p2541
I1
sS'www.sbu.gov.ua'
p2542
I1
sS'www.couriermail.com.au'
p2543
I6
sS'teknologi.news.viva.co.id'
p2544
I1
sS'wiredupdater.com'
p2545
I1
sS'www.greenleft.org.au'
p2546
I1
sS'www.airlineberg.com'
p2547
I2
sS'www.21stcenturynews.com.au'
p2548
I2
sS'shtzr.tumblr.com'
p2549
I1
sS'www.sukhoi.org'
p2550
I1
sS'airflightdisaster.com'
p2551
I1
sS'uatoday.tv'
p2552
I31
sS'www.dnaindia.com'
p2553
I7
sS'www.inmycommunity.com.au'
p2554
I1
sS'www.spectator.co.uk'
p2555
I1
sS'www.a-pac.tv'
p2556
I1
sS'nieuwsuitoekraine.blogspot.com'
p2557
I1
sS'write2rest.blogspot.com'
p2558
I2
sS'counterpsyops.com'
p2559
I4
sS'www.quizify.xyz'
p2560
I1
sS'johnitoworld.tumblr.com'
p2561
I2
sS'www.abc15.com'
p2562
I2
sS'path.com'
p2563
I16
sS'venitism.blogspot.com'
p2564
I1
sS'au.news.yahoo.com'
p2565
I11
sS'chedet.cc'
p2566
I1
sS'www.jimstonefreelance.com'
p2567
I1
sS'www.theeventchronicle.com'
p2568
I1
sS'cur.lv'
p2569
I1
sS'www.jpnn.com'
p2570
I1
sS'www.breaking911.com'
p2571
I5
sS'm.smh.com.au'
p2572
I6
sS'ian56.blogspot.co.uk'
p2573
I1
sS'blogs.timesofindia.indiatimes.com'
p2574
I1
sS'russianuniverse.org'
p2575
I18
sS'independentaustralia.net'
p2576
I4
sS'www.eaec.org'
p2577
I1
sS'www.sarawakiana.net'
p2578
I1
sS'www.nst.com.my'
p2579
I81
sS'www.cnet.com'
p2580
I1
sS'www.justgiving.com'
p2581
I2
sS'ian56.blogspot.ca'
p2582
I1
sS'stirling.inmycommunity.com.au'
p2583
I1
sS'www.aa.com.tr'
p2584
I1
sS'www.strategypage.com'
p2585
I1
sS'www.counterpunch.org'
p2586
I12
sS'www.mediaite.com'
p2587
I1
sS'www.canberratimes.com.au'
p2588
I1
sS'www.nytimes.com'
p2589
I28
sS'gumshoenews.com'
p2590
I2
sS'www.presstv.ir'
p2591
I10
sS'docs.google.com'
p2592
I1
sS'www.business-standard.com'
p2593
I5
sS'rabble.ca'
p2594
I1
sS'www.wikitree.us'
p2595
I4
sS'www.globalindonesianvoices.com'
p2596
I2
sS'm.jpnn.com'
p2597
I1
sS'assholeoftheday.us'
p2598
I1
sS'trendingnews.n'
p2599
I1
sS'www.xn-----flclaefgadgbl2ccdgivqface04a.xn--p1ai'
p2600
I1
sS'www.boycottputinnow.co'
p2601
I1
sS'www.bangkokpost.com'
p2602
I4
sS'stat.multimedia.mil.ru'
p2603
I1
sS'www.ksdk.com'
p2604
I1
sS'www.twitlonger.com'
p2605
I12
sS'theaimn.com'
p2606
I2
sS'vimeo.com'
p2607
I3
sS'vineyardsaker.blogspot.ca'
p2608
I8
sS'www.airliners.net'
p2609
I1
sS'www.fctc.org'
p2610
I1
sS'ukrainewarlog.blogspot.de'
p2611
I1
sS'fortruss.blogspot.pt'
p2612
I1
sS'forums.thechaniproject.com'
p2613
I1
sS'nieuwsuur.nl'
p2614
I3
sS'www.altheadlines.com'
p2615
I1
sS'www.handelsblatt.com'
p2616
I1
sS'globaleconomicanalysis.blogspot.nl'
p2617
I1
sS'www.strategic-culture.org'
p2618
I1
sS'cnsnews.com'
p2619
I1
sS'www.arms-expo.ru'
p2620
I1
sS'goodnewscommunications.net'
p2621
I1
sS'bellincat.co'
p2622
I1
sS'thelead.blogs.cnn.com'
p2623
I3
sS'theother14.wordpress.com'
p2624
I1
sS'www.vox.com'
p2625
I1
sS'www.realnewsuk.com'
p2626
I1
sS'www.i24news.tv'
p2627
I2
sS'www.independent.co.uk'
p2628
I25
sS'freedomoutpost.com'
p2629
I1
sS'www.newindianexpress.com'
p2630
I1
sS'hansdevreij.com'
p2631
I1
sS'www.bing.com'
p2632
I1
sS'english.cntv.cn'
p2633
I4
sS'www.dodbuzz.com'
p2634
I1
sS'www.flightradar24.com'
p2635
I5
sS'www.storyleak.com'
p2636
I1
ssS'community'
p2637
(dp2638
S'drinkdistiller.com'
p2639
I1
sS'www.corcoran.com'
p2640
I1
sS'jamesonfink.com'
p2641
I1
sS'www.unleash.com'
p2642
I1
sS'www.goodhousekeeping.com'
p2643
I1
sS'oliverpyattcentersblog.com'
p2644
I1
sS'thepoliticalcarnival.net'
p2645
I1
sS'www.biomedcentral.com'
p2646
I1
sS'blog.ucsusa.org'
p2647
I1
sS'holidayheadquarter.blogspot.com'
p2648
I3
sS'www.cityofdavidng.or'
p2649
I1
sS'infinitelegroom.com'
p2650
I1
sS'hwcdn.libsyn.com'
p2651
I4
sS'www.quizopolis.com'
p2652
I1
sS'cannabisnowmagazine.com'
p2653
I1
sS'www.recipesandreviews.co.uk'
p2654
I1
sS'www.thepresentfinder.co.uk'
p2655
I1
sS'www.turinepi.com'
p2656
I1
sS'twonerdyhistorygirls.blogspot.com'
p2657
I1
sS'scenesfromseattle.tumblr.com'
p2658
I1
sS'blog.hubspot.com'
p2659
I1
sS'feedthefuture.gov'
p2660
I1
sS'www.wifr.com'
p2661
I1
sS'holyhillchurch.org'
p2662
I1
sS'www.goodbyemonsters.com'
p2663
I1
sS'trafficwaveforprofit.adobeconnect.com'
p2664
I1
sS'shop.o2o.com'
p2665
I1
sS'www.kitchendaily.com'
p2666
I3
sS'www.BirdmanTheMovie.com'
p2667
I1
sS'westsidethanksgiving.or'
p2668
I1
sS'saltandwind.com'
p2669
I1
sS'www.bellesprit.com'
p2670
I1
sS'www.netflix.com'
p2671
I1
sS'www.tabasco.com'
p2672
I1
sS'econsultancy.com'
p2673
I1
sS'www.twcnews.com'
p2674
I1
sS'www.officialjenniferann.com?nats=MTAxOTcuMi44NS4xOTcuMjguMC4wLjAuM'
p2675
I1
sS'www.fabulousveganrecipes.com'
p2676
I1
sS'www.cookingchanneltv.com'
p2677
I1
sS'torispelling.com'
p2678
I1
sS'www.nbcnews.com'
p2679
I1
sS'punkskateclub.com'
p2680
I1
sS'is.gd'
p2681
I1
sS'secure.peta.org'
p2682
I1
sS'Allrecipes.co'
p2683
I1
sS'samanthastevens.wordpress.com'
p2684
I1
sS'www.ghafla.co.ke'
p2685
I2
sS'welldined.com'
p2686
I1
sS'j.gs'
p2687
I1
sS'gmoinside.org'
p2688
I1
sS'www.frontrowmama.com'
p2689
I1
sS'www.cloudlytics.com'
p2690
I1
sS'm.boylesports.com'
p2691
I1
sS'www.health-bird.net'
p2692
I1
sS'www.officialanndenise.com?nats=MTAxOTcuMi44MS4xOTMuMjguMC4wLjAuM'
p2693
I1
sS'arlingtontexastoday.com'
p2694
I1
sS'www.glamour.com'
p2695
I5
sS'www.mymindblown.com'
p2696
I1
sS'TipWriter.expertscolumn.com'
p2697
I1
sS'm.en.vogue.fr'
p2698
I1
sS'juliedible.wordpress.com'
p2699
I1
sS'momontheside.com'
p2700
I1
sS'jasonsplattitudes.blogspot.com'
p2701
I1
sS'lh3.googleusercontent.com'
p2702
I1
sS'12thplanetmerch.co'
p2703
I1
sS'www.cbn.com'
p2704
I1
sS'popcrush.com'
p2705
I2
sS'www.livejasmin.com'
p2706
I1
sS'themotorstory.org'
p2707
I1
sS'www.thetrumpet.com'
p2708
I1
sS'ny.curbed.com'
p2709
I1
sS'environment.yale.edu'
p2710
I1
sS'blog.partnersforyourhealth.com'
p2711
I1
sS'www.officialrachelmcdonald.com?nats=MTAxOTcuMi44Mi4xOTQuMjguMC4wLjAuM'
p2712
I1
sS'www.thedodo.com'
p2713
I1
sS'www.evergladesholidaypark.com'
p2714
I1
sS'awritercalledwanda.blogspot.com'
p2715
I1
sS'detroit.cbslocal.com'
p2716
I1
sS'real-estate-spokane.com'
p2717
I2
sS'forthecountryrecord.com'
p2718
I1
sS'www.thedenverchannel.com'
p2719
I1
sS'zachnews.wordpress.com'
p2720
I1
sS'JANEUNCHAINED.CO'
p2721
I1
sS'www.asos.com'
p2722
I2
sS'www.shopstyle.com'
p2723
I1
sS'www.eTherapyofCT.co'
p2724
I1
sS'4buyersre.com'
p2725
I1
sS'vacationlate.com'
p2726
I1
sS'www.penguin.com'
p2727
I1
sS'www.kraftrecipes.com'
p2728
I2
sS'www.3drose.com'
p2729
I1
sS'insiders.aber.ac.uk'
p2730
I1
sS'www.melodypetite.com'
p2731
I1
sS'soulofwit.com'
p2732
I2
sS'smacktongue.co'
p2733
I1
sS'www.thesca.org'
p2734
I1
sS'www.talentculture.com'
p2735
I1
sS'www.boxercouch.co'
p2736
I1
sS'visual.ly'
p2737
I1
sS'www.singingthroughtherain.net'
p2738
I1
sS'www.bettybake.co.za'
p2739
I1
sS'www.frank-webb.com'
p2740
I1
sS'debtfreeamerica.com'
p2741
I1
sS'www.themorganmag.com'
p2742
I1
sS'kripalu.org'
p2743
I1
sS'magnoliadays.com'
p2744
I1
sS'www.opry.com'
p2745
I1
sS'www.kathilipp.com'
p2746
I1
sS'cleaneatinggoddess.ca'
p2747
I1
sS'm.isthmus.com'
p2748
I1
sS'climaterevolution.co.uk'
p2749
I1
sS'videogamebinge.com'
p2750
I1
sS'www.yelp.com'
p2751
I2
sS'www.chacha.com'
p2752
I1
sS'www.futurahomedecorating.com'
p2753
I1
sS'www.theritzlondon.com'
p2754
I1
sS'simplyfabsupermom.wordpress.com'
p2755
I1
sS'www.yelosangelestimes.com'
p2756
I3
sS'www.ihail.com'
p2757
I1
sS'www.iloveny.com'
p2758
I3
sS'www.vinotravelsitaly.com'
p2759
I1
sS'bubblynaturecreations.com'
p2760
I1
sS'robbreport.com'
p2761
I1
sS'blog.educanon.com'
p2762
I1
sS'www.blacklistednews.com'
p2763
I1
sS'www.workers.org'
p2764
I1
sS'www.kidbiblelessons.com'
p2765
I1
sS'www.someecards.com'
p2766
I1
sS'gueststogarters.com'
p2767
I1
sS'smallbusiness.com'
p2768
I1
sS'bingetube.com'
p2769
I1
sS'www.ahcancal.org'
p2770
I1
sS'mygirlfund.com'
p2771
I1
sS'wigradio.co'
p2772
I1
sS'www.valpak.com'
p2773
I1
sS'searchengineland.com'
p2774
I1
sS'easteuropeanfood.about.com'
p2775
I1
sS'www.fsseed.com'
p2776
I1
sS'press.fourseasons.com'
p2777
I1
sS'www.teambeachbody.com'
p2778
I1
sS'inside.iupui.edu'
p2779
I1
sS'kellystilwell.com'
p2780
I1
sS'www.wsj.com'
p2781
I3
sS'arizonasports.com'
p2782
I1
sS'www.maximus.com'
p2783
I1
sS'elitedaily.com'
p2784
I1
sS'blogs.palmer.edu'
p2785
I1
sS'www.wallpapergeeks.com'
p2786
I1
sS'www.prnewswire.com'
p2787
I1
sS'www.sandiegomagazine.com'
p2788
I1
sS'www.whdh.com'
p2789
I1
sS'www.afrugalfriend.net'
p2790
I1
sS'www.maxim.com'
p2791
I1
sS'unique-gift-ideas.weebly.com'
p2792
I1
sS'wellandgood.com'
p2793
I1
sS'writtenbypatrickbrown.com'
p2794
I1
sS'the-fashionfootwear.com'
p2795
I1
sS'www.psychologytoday.com'
p2796
I3
sS'www.globalgiving.org'
p2797
I1
sS'www.chow.com'
p2798
I2
sS'www.snooth.com'
p2799
I1
sS'www.liccng.org'
p2800
I1
sS'blog.opower.com'
p2801
I1
sS'www.people.com'
p2802
I6
sS'bydeimie.tumblr.com'
p2803
I1
sS'www.gettalksupport.com'
p2804
I1
sS'www.stuffspec.com'
p2805
I2
sS'www.dragonplay.com'
p2806
I3
sS'www.doctoroz.com'
p2807
I1
sS'www.goodreads.com'
p2808
I1
sS'www.paleofx.com'
p2809
I1
sS'www.trendingcontentnow.com'
p2810
I1
sS'www.mommyenterprises.com'
p2811
I2
sS'www.chicagofestivals.org'
p2812
I2
sS'www.esa.int'
p2813
I1
sS'www.kriskoeller.com'
p2814
I1
sS'www.militarytravelexchange.com'
p2815
I1
sS'feedter.com'
p2816
I1
sS'www.schools.com'
p2817
I1
sS'www.weightwatchers.com'
p2818
I1
sS'www.cnet.com'
p2819
I3
sS'photos.dailynews.com'
p2820
I2
sS'www1.nyc.gov'
p2821
I1
sS'money.cnn.com'
p2822
I4
sS'www.confessionsofaparent.com'
p2823
I1
sS'justpaste.it'
p2824
I1
sS'accounts.google.com'
p2825
I1
sS'veganoutreach.org'
p2826
I1
sS'taste.fourseasons.com'
p2827
I2
sS'www.graphics.com'
p2828
I1
sS'thediaryofanurbanhousewife.blogspot.com'
p2829
I2
sS'abundancedancegarden.wordpress.com'
p2830
I1
sS'cooklime.com'
p2831
I14
sS'www.studio66tv.co'
p2832
I1
sS'tinybuddha.com'
p2833
I1
sS'boldandbelligerent.podbean.com'
p2834
I1
sS'www.thesyrianwar.com'
p2835
I1
sS'blog.lacrema.com'
p2836
I1
sS'www.uptv.com'
p2837
I1
sS'gailterp.com'
p2838
I1
sS'aroundtheworldinktdays.com'
p2839
I1
sS'penandmoon.com'
p2840
I1
sS'thedailyblu.com'
p2841
I1
sS'www.maplessmike.com'
p2842
I1
sS'blog.chron.com'
p2843
I1
sS'gangstersinc.ning.co'
p2844
I1
sS'www.reverbnation.co'
p2845
I1
sS'stepitupwithsteph.com'
p2846
I1
sS'www.inetwebsystems.com'
p2847
I1
sS'whattheflicka.com'
p2848
I1
sS'www.goodtoknow.co.uk'
p2849
I1
sS'www.al.com'
p2850
I5
sS'www.digitron-blog.net'
p2851
I1
sS'www.miaminewtimes.com'
p2852
I2
sS'more.gthankyou.com'
p2853
I1
sS'bingeaudio.com'
p2854
I2
sS'www.tastemade.com'
p2855
I1
sS'thenextfamily.com'
p2856
I1
sS'blog.jordanwinery.com'
p2857
I1
sS'www.sweetpaulmag.com'
p2858
I1
sS'www.exaholics.com'
p2859
I1
sS'www.whio.com'
p2860
I1
sS'www.biomazinghcg.com'
p2861
I1
sS'drink.bostonchefs.com'
p2862
I1
sS'www.hashtracking.com'
p2863
I1
sS'jaraads.com'
p2864
I1
sS'www.autismspeaks.org'
p2865
I2
sS'www.footnotesandfinds.com'
p2866
I1
sS'www.bikini.com'
p2867
I1
sS'girlsglobe.org'
p2868
I1
sS'www.amychendesign.com'
p2869
I1
sS'www.thenationalherald.com'
p2870
I1
sS'issuu.com'
p2871
I2
sS'tccnj.org'
p2872
I1
sS'tcgcard.blogspot.com'
p2873
I1
sS'www.thefreshquotes.com'
p2874
I1
sS'www.tellmeanswer.net'
p2875
I7
sS'rt.com'
p2876
I1
sS'www.deschutesbrewery.com'
p2877
I1
sS'www.196flavors.com'
p2878
I2
sS'www.pinterest.com'
p2879
I17
sS'www.xvideos.com'
p2880
I1
sS'www.flavorus.com'
p2881
I1
sS'www.yourdailyvegan.com'
p2882
I1
sS'www.marquesdaniels.com'
p2883
I1
sS'spotlight.ipsos-na.com'
p2884
I1
sS'xxxPandorasBoxxx.co'
p2885
I1
sS'www.facebook.com'
p2886
I56
sS'westphoria.sunset.com'
p2887
I1
sS'santanyc.com'
p2888
I1
sS'www.getboldtoday.com'
p2889
I1
sS'www.yuengling.com'
p2890
I2
sS'www.myrtlebeach.com'
p2891
I1
sS'www.marthastewart.com'
p2892
I2
sS'shorelunch.com'
p2893
I1
sS'familiesusa.org'
p2894
I1
sS'www.derekpillie.com'
p2895
I1
sS'paleomovement.com'
p2896
I1
sS'www.mister-and-me.com'
p2897
I1
sS'xoxoarlene.com'
p2898
I2
sS'www.chicagotribune.com'
p2899
I2
sS'prettyveggie.com'
p2900
I1
sS'www.newyorklife.com'
p2901
I1
sS'www.artfire.com'
p2902
I5
sS'www.kansascity.com'
p2903
I1
sS'www.seriouseats.com'
p2904
I4
sS'www.relevanza.com'
p2905
I1
sS'leehiller.com'
p2906
I1
sS'andrewzimmern.com'
p2907
I4
sS'www.leatherandlipstickkv.com'
p2908
I1
sS'www.ilovebeingadad.com'
p2909
I1
sS'www.keithcarsonweather.com'
p2910
I1
sS'www.latenightsportsradio.com'
p2911
I1
sS'www.yummly.com'
p2912
I1
sS'blog.tsa.gov'
p2913
I1
sS'mobile.twitter.com'
p2914
I1
sS'www.kickstarter.com'
p2915
I1
sS'UselessDistraction.co'
p2916
I1
sS'loopradio.ne'
p2917
I1
sS'herohealthroom.com'
p2918
I1
sS'knk0114.lofter.com'
p2919
I1
sS'www.nfpa.org'
p2920
I1
sS'www.hgtvgardens.com'
p2921
I1
sS'mommywithaplan.com'
p2922
I1
sS'gabbyquinteros.com'
p2923
I1
sS'cabingoddess.com'
p2924
I1
sS'www.supergossip.net'
p2925
I3
sS'ac360.blogs.cnn.com'
p2926
I1
sS'www.iqboom.com'
p2927
I14
sS'www.cspnet.com'
p2928
I1
sS'www.robinleehatcher.com'
p2929
I2
sS'www.learningliftoff.com'
p2930
I1
sS'www.infignosmedia.com?p=bT923028&CFID=36190305&CFTOKEN=5f909302dbfad36-41D9F07B-9314-9206-0C2990054838B25'
p2931
I1
sS'www1.macys.com'
p2932
I1
sS'www.thepennyhoarder.com'
p2933
I1
sS'www.yogajournal.com'
p2934
I2
sS'www.designwall.com'
p2935
I1
sS'brokenbeautifulbold.com'
p2936
I1
sS'sixwordmemoirs.com'
p2937
I1
sS'www.finalcall.com'
p2938
I1
sS'www.marvitafranklin.com'
p2939
I1
sS'www.hobsonassoc.com'
p2940
I1
sS'fuzmo.com'
p2941
I1
sS'apps.facebook.com'
p2942
I12
sS'act.mtv.com'
p2943
I1
sS'www.apparelnbags.com'
p2944
I1
sS'broadwaysbestshows.com'
p2945
I2
sS'mamanyc.net'
p2946
I1
sS'chicago.cbslocal.com'
p2947
I2
sS'pastriespumpsandpi.blogspot.com'
p2948
I1
sS'www.lonelyplanet.com'
p2949
I2
sS'www.i4u.com'
p2950
I1
sS'www.gratitude-game.co'
p2951
I1
sS'www.dailymail.co.uk'
p2952
I2
sS'dixieswanson.com'
p2953
I1
sS'kisshergoodbye.authorsxpress.co'
p2954
I1
sS'www.missoni.com'
p2955
I1
sS'coolmomscooltips.com'
p2956
I1
sS'blogs.webmd.com'
p2957
I1
sS'becomingthejourney.com'
p2958
I1
sS'www.ixtentia.com'
p2959
I1
sS'BingeAudio.co'
p2960
I1
sS'www.kingofsohodrinks.com'
p2961
I1
sS'www.sixsistersstuff.com'
p2962
I1
sS'www.fws.gov'
p2963
I1
sS'blog.vidinterest.tv'
p2964
I1
sS'www.wsvn.com'
p2965
I2
sS'blog.travelchannel.com'
p2966
I1
sS'www.portagelife.com'
p2967
I1
sS'www.nbcphiladelphia.com'
p2968
I1
sS'buzcast.com'
p2969
I1
sS'relate.pw'
p2970
I1
sS'have-need-want.com'
p2971
I1
sS'www.banfield.com'
p2972
I1
sS'www.thrillist.com'
p2973
I1
sS'www.amazinghousedesign.com'
p2974
I1
sS'emerils.com'
p2975
I2
sS'www.mcgi.org'
p2976
I1
sS'www.theyellowcapecod.com'
p2977
I1
sS'www.amazon.co'
p2978
I1
sS'ohl.rainn.org'
p2979
I1
sS'notacurry.com'
p2980
I1
sS'www.30secondmom.com'
p2981
I2
sS'AnExtraordinaryDay.ne'
p2982
I1
sS'home.trainingpeaks.com'
p2983
I1
sS'ChristmasBinge.co'
p2984
I1
sS'www.my-photo-school.com'
p2985
I1
sS'act.couragecampaign.org'
p2986
I1
sS'BingePod.co'
p2987
I1
sS'sway.com'
p2988
I1
sS'www.breaking911.com'
p2989
I2
sS'www.beachbody.com'
p2990
I1
sS'www.beaches.com'
p2991
I1
sS'www.counterpunch.org'
p2992
I1
sS'www.zibbet.com'
p2993
I1
sS'holykaw.alltop.com'
p2994
I1
sS'livhomeblog.com'
p2995
I1
sS'anh.yoube.vn'
p2996
I3
sS'www.irishexaminer.com'
p2997
I1
sS'www.recipebyday.com'
p2998
I1
sS'www.crowdrise.com'
p2999
I1
sS'gotham-magazine.com'
p3000
I1
sS'www.directorjewels.com'
p3001
I1
sS'www.chat2hookup.com'
p3002
I1
sS'www.sundance.org'
p3003
I1
sS'www.washingtonpost.com'
p3004
I2
sS'www.blogtalkradio.com'
p3005
I1
sS'dvogelsang.blogspot.com'
p3006
I1
sS'www.jasonbladd.com'
p3007
I1
sS'www.grandbaby-cakes.com'
p3008
I1
sS'www.healthyorganicdogbiscuits.com'
p3009
I1
sS'www.heritage.org'
p3010
I1
sS'www.casadecrews.com'
p3011
I1
sS'sports.bovada.lv'
p3012
I1
sS'celebratewomantoday.com'
p3013
I2
sS'www.nbc.com'
p3014
I1
sS'patdollard.com'
p3015
I1
sS'987ampradio.cbslocal.com'
p3016
I1
sS'bookreviews.infoversant.com'
p3017
I1
sS'www.newyork.com'
p3018
I1
sS'bellebrita.com'
p3019
I1
sS'reallyawfulmovies.com'
p3020
I1
sS'www.mobli.com'
p3021
I1
sS'bostoncae.augusoft.net'
p3022
I1
sS'www.barefoothippiegirl.com'
p3023
I1
sS'www.thehealthymoms.net'
p3024
I3
sS'commons.wikimedia.org'
p3025
I1
sS'www.rachelandmiles.com'
p3026
I1
sS'www.clickondetroit.com'
p3027
I1
sS'Instagram.com'
p3028
I2
sS'blog.freepeople.com'
p3029
I1
sS'www.mrspresson.com'
p3030
I1
sS'mars.jpl.nasa.gov'
p3031
I1
sS'www.kohls.com'
p3032
I3
sS'www.absolutdrinks.com'
p3033
I1
sS'blog.logmein.com'
p3034
I1
sS'www.weareteachers.com'
p3035
I1
sS'www.arizonafoothillsmagazine.com'
p3036
I1
sS'barbtaub.com'
p3037
I1
sS'www.jabongworld.com'
p3038
I1
sS'voyageofthedarned.blogspot.com'
p3039
I1
sS'blogs.lawyers.com'
p3040
I1
sS'www.peer1.com'
p3041
I1
sS'www.transportation.gov'
p3042
I1
sS'www.homedecoranddesign.com'
p3043
I5
sS'www.celebuzz.com'
p3044
I1
sS'rafl-fb-tab-app.s3.amazonaws.com'
p3045
I1
sS'www.abouttimemagazine.co.uk'
p3046
I1
sS'photogrammar.yale.edu'
p3047
I1
sS'asmarterplanet.com'
p3048
I2
sS'www.doublewidenetwork.com'
p3049
I1
sS'www.vraimagazine.com'
p3050
I1
sS'www.stripes.com'
p3051
I1
sS'store.sho.com'
p3052
I2
sS'www.momjunky.com'
p3053
I1
sS'bdnews24.com'
p3054
I1
sS'diplomaticourier.com'
p3055
I1
sS'www.katu.com'
p3056
I1
sS'www.childrensmuseum.org'
p3057
I1
sS'blog.totalprotect.com'
p3058
I1
sS'www.skinnygirldaily.co'
p3059
I1
sS'totsandme.blogspot.com'
p3060
I2
sS'pukeandthegang.com'
p3061
I1
sS'www.tonightsgirlfriend.com?nats=seoteam.12.58.80.0.0.0.0.'
p3062
I1
sS'www.cookingupcottage.com'
p3063
I1
sS'www.motherjones.com'
p3064
I2
sS'www.cookiesbydesign.com'
p3065
I1
sS'www.crackerbarrel.com'
p3066
I1
sS'www.scoreland.com'
p3067
I1
sS'RNR-Marine.com'
p3068
I11
sS'www.kitchenistadiaries.com'
p3069
I1
sS'www.buzzinrome.com'
p3070
I1
sS'www.seahawks.com'
p3071
I4
sS'warrior.scout.com'
p3072
I1
sS'redroseyellowrosecardboardbox.blogspot.com'
p3073
I1
sS'info.trepp.com'
p3074
I1
sS'www.townandcountrymag.com'
p3075
I1
sS'insidebrucrewlife.com'
p3076
I1
sS'spiritofnorthernlights.com'
p3077
I1
sS'www.weather.go'
p3078
I1
sS'BingePlayer.co'
p3079
I1
sS'www.zivame.com'
p3080
I1
sS'www.warn-usa.com'
p3081
I1
sS'vimeo.com'
p3082
I3
sS'gallys.bigtithitomi.com'
p3083
I1
sS'cbsradionewscast.com'
p3084
I1
sS'blog.hellofresh.com'
p3085
I1
sS'www.evelyntidmanauthor.com'
p3086
I1
sS'crocesparkwest.com'
p3087
I1
sS'www.lollydaskal.com'
p3088
I1
sS'VideoBinge.co'
p3089
I1
sS'fashionandfrappes.com'
p3090
I1
sS'mommacan.com'
p3091
I1
sS'doctorsimmediatecare.com'
p3092
I1
sS'joemiller.us'
p3093
I1
sS'www.illuminatiofficial.org'
p3094
I1
sS'www.simplehealthykitchen.com'
p3095
I1
sS'jimbuchan.com'
p3096
I1
sS'blog.ebiquity.com'
p3097
I2
sS'plus.google.com'
p3098
I2
sS'www.sosvegetarianlife.com'
p3099
I2
sS'smithsonianscience.org'
p3100
I1
sS'www.970wfla.com'
p3101
I3
sS'www.hercampus.com'
p3102
I1
sS'faithalongtheway.com'
p3103
I1
sS'hopenurturedhobbies.com'
p3104
I6
sS'sploid.gizmodo.com'
p3105
I1
sS'magazine.foxnews.com'
p3106
I1
sS'www.target.com?clkid=U2Nzw9zxYwQ42LBUCrToqTc9UkVRjszX0WYZzY0&lnm=81938&afid=maleahbarrett&ref=tgt_adv_xasd000'
p3107
I1
sS'www.gopetplan.com'
p3108
I1
sS'adventurestravelsandfun.blogspot.com'
p3109
I1
sS'www.treehugger.com'
p3110
I1
sS'selahafrik.com'
p3111
I1
sS'getsocialwithpatrick.wordpress.com'
p3112
I1
sS'www.kpbs.org'
p3113
I1
sS'welleatyouupweloveyouso.com'
p3114
I1
sS'byuiscroll.org'
p3115
I1
sS'www.whosay.com'
p3116
I4
sS'www.croassociation.org'
p3117
I1
sS'www.cleaneatingveggiegirl.com'
p3118
I3
sS'www.vibe.com'
p3119
I1
sS'se.ivyrc.com'
p3120
I1
sS'ohsheglows.com'
p3121
I1
sS'www.tamaramellon.com'
p3122
I1
sS'www.hrothstein.com'
p3123
I1
sS'www.chiminess.com'
p3124
I1
sS'www.fourseasons.com'
p3125
I1
sS'HughesDayParty.co'
p3126
I1
sS'eatneat.com'
p3127
I1
sS'www.hyceplace.com'
p3128
I1
sS'veganstreet.com'
p3129
I1
sS'gizmodo.com'
p3130
I1
sS'www.lifesambrosia.com'
p3131
I1
sS'www.choicehotels.com?adbid=539790545900429314&adbpl=tw&adbpr=16031939&source=social_20141202_3655133'
p3132
I1
sS'uselessdistraction.com'
p3133
I3
sS'm.christianpost.com'
p3134
I1
sS'www.aflcio.org'
p3135
I1
sS'itunes.apple.com'
p3136
I5
sS'www.noanimalpoaching.org'
p3137
I1
sS'whatupswags.blogspot.com'
p3138
I1
sS'www.newyorkgourmetcoffee.com'
p3139
I1
sS'www.mltconsultants.com'
p3140
I1
sS'www.inquisitr.com'
p3141
I1
sS'www.cnn.com'
p3142
I8
sS'oceantoday.noaa.gov'
p3143
I1
sS'www.mobilemarketingwatch.com'
p3144
I1
sS'coachingbusinessinabox.rsscb.com'
p3145
I1
sS'time.com'
p3146
I5
sS'www.iheart-motherhoodblog.com'
p3147
I1
sS'artowls.com'
p3148
I1
sS'movietickets.warnerbros.com'
p3149
I1
sS'www.jimandthem.com'
p3150
I1
sS'ShandaFay.co'
p3151
I1
sS'www.mtv.co.uk'
p3152
I1
sS'PunkSkateClub.co'
p3153
I1
sS'www.bigcorkvineyards.com'
p3154
I1
sS'blogs.wsj.com'
p3155
I1
sS'abc7.com'
p3156
I1
sS'www.realsimple.com'
p3157
I1
sS'michellephan.com'
p3158
I1
sS'www.cafepress.com'
p3159
I8
sS'urbana.org'
p3160
I1
sS'blog.honest.com'
p3161
I1
sS'misc.newyorklife.com'
p3162
I1
sS'www.godsgrowinggarden.com'
p3163
I2
sS'www.cms.gov'
p3164
I1
sS'salsa3.salsalabs.com'
p3165
I1
sS'www.exposethetpp.org'
p3166
I1
sS'onbetterliving.com'
p3167
I4
sS'ahollywoodflashback.blogspot.com'
p3168
I1
sS'www.newsday.com'
p3169
I1
sS'www.wfp.org'
p3170
I1
sS'www.thespoof.com'
p3171
I1
sS'classicallytrained.net'
p3172
I1
sS'princessofthelight.wordpress.com'
p3173
I1
sS'linkis.com'
p3174
I15
sS'www.coghlincompanies.com'
p3175
I1
sS'www.joomlart.com'
p3176
I10
sS'www.experiencejubilee.org'
p3177
I1
sS'www.entertainingiseasy.com'
p3178
I1
sS'christmasbinge.com'
p3179
I10
sS'www.savingsaidsimply.com'
p3180
I1
sS'www.produceforkids.com'
p3181
I1
sS'runninginaskirt.com'
p3182
I1
sS'www.dagmarbleasdale.com'
p3183
I1
sS'amp.twimg.com'
p3184
I11
sS'visitor.r20.constantcontact.com'
p3185
I1
sS'www.shoppingadviser.in'
p3186
I1
sS'www.thebump.com'
p3187
I1
sS'www.goforitshow.com'
p3188
I1
sS'www.biblegateway.com'
p3189
I1
sS'persianmama.com'
p3190
I1
sS'theboot.com'
p3191
I2
sS'www.alipac.us'
p3192
I1
sS'www.homedecoratingguru.com'
p3193
I1
sS'www.aroadlesstaken.org'
p3194
I1
sS'www.stylemepretty.com'
p3195
I1
sS'www.cityofdavidng.org'
p3196
I2
sS'CaptainMarketing.co'
p3197
I1
sS'www.infobarrel.com'
p3198
I2
sS'www.mortaljourney.com'
p3199
I1
sS'www.johnsoncitypress.com'
p3200
I1
sS'www.ebay.com'
p3201
I18
sS'www.tompainetoday.com'
p3202
I1
sS'Walmart.co'
p3203
I1
sS'www.bbcamerica.com'
p3204
I1
sS'www.animalleague.org'
p3205
I1
sS'insidescoopsf.sfgate.com'
p3206
I1
sS'www.puritan.com'
p3207
I1
sS'www.ideasintoart.net'
p3208
I1
sS'www.adgooroo.com'
p3209
I1
sS'www.gomommacoupons.com'
p3210
I1
sS'www.samsung.com'
p3211
I1
sS'www.cbsnews.com'
p3212
I1
sS'blog.foodbankcenc.org'
p3213
I2
sS'goneklippinkrazy.com'
p3214
I1
sS'www.gaycalgary.com'
p3215
I3
sS'theglutensummit.co'
p3216
I1
sS'energy.gov'
p3217
I1
sS'd1dwvcwq657ipv.cloudfront.net'
p3218
I3
sS'the-leadership-academy.co'
p3219
I1
sS'www.wjla.com'
p3220
I1
sS'www.v-gar.co'
p3221
I1
sS'www.butterballabuse.com'
p3222
I1
sS'fahlo.me'
p3223
I3
sS'www.jess-davies.com'
p3224
I1
sS'www.ktuu.com'
p3225
I1
sS'www.hillbillynews.net'
p3226
I1
sS'fan.cx'
p3227
I1
sS'cynthiaroemer.weebly.co'
p3228
I1
sS'www.rttnews.com'
p3229
I1
sS'www.caribentertainment.net'
p3230
I2
sS'christine-ardigo-author.com'
p3231
I1
sS'ow.ly'
p3232
I24
sS'ConservativeReport.Org'
p3233
I1
sS'www.whitecastle.com'
p3234
I1
sS'www.esri.com'
p3235
I1
sS'www.weeatreal.com'
p3236
I5
sS'handicapthis.com'
p3237
I1
sS'slowtravelguidebook.com'
p3238
I1
sS'photo.oxyapps.net'
p3239
I4
sS'www.csmonitor.com'
p3240
I3
sS'genesis-foundation.ne'
p3241
I1
sS'guides.wonobo.com'
p3242
I1
sS'HalloweenBinge.co'
p3243
I1
sS'www.netmining.com'
p3244
I1
sS'alphanow.thomsonreuters.com'
p3245
I1
sS'tropichomeandfamily.com'
p3246
I1
sS'blog.spylight.com'
p3247
I1
sS'thatwillplaypod.com'
p3248
I1
sS'www.celeblovers.com'
p3249
I1
sS'roseandwomble.com'
p3250
I1
sS'falkentire.com'
p3251
I1
sS'well.blogs.nytimes.com'
p3252
I2
sS'www.parenttoolkit.com'
p3253
I1
sS'm.facebook.com'
p3254
I3
sS'vegetariansnob.com'
p3255
I1
sS'vine.co'
p3256
I59
sS'realgirlskitchen.co'
p3257
I1
sS'steller.co'
p3258
I1
sS'www.yenewyorkpost.com'
p3259
I4
sS'tyleroakley.com'
p3260
I1
sS'3blmedia.com'
p3261
I1
sS'www.instagramvegan.com'
p3262
I5
sS'allrecipes.com'
p3263
I1
sS'daysofadomesticdad.com'
p3264
I1
sS'www.accuweather.com'
p3265
I1
sS'www.dailyrecord.co.uk'
p3266
I1
sS'en.wikipedia.org'
p3267
I1
sS'www.winepairingweekend.com'
p3268
I1
sS'www.nytimes.com'
p3269
I6
sS'www.wellplated.com'
p3270
I1
sS'trueformlife.com'
p3271
I1
sS'www.lucy-v.com'
p3272
I1
sS'www.mtv.com'
p3273
I1
sS'www.siembravalles.com'
p3274
I1
sS'www.popsugar.com'
p3275
I3
sS'likeavegan.com.au'
p3276
I1
sS'www.coworker.org'
p3277
I1
sS'www.catalinacruz.co'
p3278
I1
sS'www.palestinechronicle.com'
p3279
I1
sS'just2sisters.com'
p3280
I2
sS'tinyurl.com'
p3281
I1
sS'bulletbluesca.com'
p3282
I1
sS'www.dvdinfatuation.com'
p3283
I2
sS'www.self.com'
p3284
I12
sS'www.boomerplaces.com'
p3285
I1
sS'queenlatifah.com'
p3286
I2
sS'www.mydaytondailynews.com'
p3287
I1
sS'www.grindtv.com'
p3288
I1
sS'PointlessDiversion.co'
p3289
I1
sS'abc.go.com'
p3290
I1
sS'purebspodcast.co'
p3291
I1
sS'www.forksoverknives.com'
p3292
I1
sS'www.watoto.com'
p3293
I1
sS'bingevideo.com'
p3294
I1
sS'www.offthechartsblog.org'
p3295
I1
sS'deadline.com'
p3296
I1
sS'www.axa-im.com'
p3297
I1
sS'www.foxsports.com'
p3298
I1
sS'thriftycook.co.uk'
p3299
I1
sS'goodlife.allstate.com'
p3300
I1
sS'blogs.edweek.org'
p3301
I1
sS'comicskingdom.com'
p3302
I1
sS'actionforbetterhealthcare.com'
p3303
I1
sS'paparazziaccessories.co'
p3304
I1
sS'www.charley-s.com?nats=MTAxOTcuMi44Ny4yMDAuMjguMC4wLjAuM'
p3305
I1
sS'AmericanBinge.co'
p3306
I1
sS'denverfoodguy.blogspot.com'
p3307
I1
sS'maternity.motherhood.com'
p3308
I1
sS'villamosconi.com'
p3309
I1
sS'm.motherjones.com'
p3310
I1
sS'www.hgtv.com'
p3311
I1
sS'www.brooklyneagle.com'
p3312
I1
sS'www.newscientist.com'
p3313
I1
sS'www.reverbnation.com'
p3314
I1
sS'www.hulu.com'
p3315
I2
sS'store.line.me'
p3316
I1
sS'www.howdoesshe.com'
p3317
I1
sS'www.jennsblahblahblog.com'
p3318
I2
sS'www.metmuseum.org'
p3319
I3
sS'give.wfp.org'
p3320
I2
sS'www.indiegogo.com'
p3321
I2
sS'www.wallpapergeeks.co'
p3322
I1
sS'tomatoenvy.com'
p3323
I1
sS'www.rodalenews.com'
p3324
I1
sS'savvybookwriters.wordpress.com'
p3325
I1
sS'www.savingcentswithsense.net'
p3326
I8
sS'www.steamboattoday.com'
p3327
I1
sS'littleleopardbook.com'
p3328
I1
sS'www.deliciousmagazine.co.uk'
p3329
I1
sS'stylenews.peoplestylewatch.com'
p3330
I1
sS'video.foxbusiness.com'
p3331
I2
sS'blog.getkahoot.com'
p3332
I1
sS'www.thequicklaugh.com'
p3333
I1
sS'images.verizonwireless.com'
p3334
I1
sS'po.st'
p3335
I6
sS'lesdeuxgaminsmontreal.com'
p3336
I1
sS'www.clevermovegames.com'
p3337
I1
sS'www.cigspy.com'
p3338
I1
sS'moondustwriter.com'
p3339
I1
sS'www.youtube.com'
p3340
I119
sS'nakedpapis.com'
p3341
I1
sS'solo.bodleian.ox.ac.uk'
p3342
I1
sS'petergreenberg.com'
p3343
I1
sS'www.cheapair.com'
p3344
I1
sS'www.stressfreekids.com'
p3345
I1
sS'ihorror.com'
p3346
I1
sS'blog.elscintautomation.com'
p3347
I1
sS'www.rockstargames.com'
p3348
I1
sS'clatl.com'
p3349
I1
sS'www.creditsesame.com'
p3350
I1
sS'www.qgazette.com'
p3351
I1
sS'blog.hootsuite.com'
p3352
I1
sS'data-informed.com'
p3353
I1
sS'urbanext.illinois.edu'
p3354
I1
sS'www.naturalphotographyspa.com'
p3355
I1
sS'resepna.blogspot.com'
p3356
I1
sS'blog.whiskeydisks.com'
p3357
I1
sS'fieldhousepresentsaholidaybenefit.bandcamp.com'
p3358
I1
sS'www.opentable.com'
p3359
I1
sS'www.yewseafood.com'
p3360
I1
sS'www.clickhole.com'
p3361
I1
sS's3.amazonaws.com'
p3362
I2
sS'wtvr.com'
p3363
I1
sS'www.azcentral.com'
p3364
I5
sS'cityofdavidng.org'
p3365
I3
sS'www.clambakeco.com'
p3366
I1
sS'ramjackpodcast.com'
p3367
I1
sS'madagascar.dreamworks.com'
p3368
I1
sS'destinationsanddepartures.wordpress.com'
p3369
I1
sS'youvegottotastethis.myrecipes.com'
p3370
I1
sS'www.inheritingourplanet.com'
p3371
I3
sS'www.samhsa.gov'
p3372
I1
sS'www.judicialwatch.org'
p3373
I1
sS'www.adobe.com'
p3374
I1
sS'www.orvis.com'
p3375
I2
sS'www.ninthdecimal.com'
p3376
I1
sS'rayj.com'
p3377
I1
sS'offerpop.com'
p3378
I1
sS'path.com'
p3379
I1
sS'foodandnutrition.org'
p3380
I1
sS'mysocialgoodnews.tumblr.com'
p3381
I1
sS'www.gaystarnews.com'
p3382
I2
sS'learningaswegohomeschooling.blogspot.com'
p3383
I1
sS'www.elizabethturnage.com'
p3384
I1
sS'www.denverbroncos.com'
p3385
I1
sS'blogs.informatica.com'
p3386
I1
sS'unitedstateschat.net'
p3387
I1
sS'www.southernbellaswaystosave.com'
p3388
I1
sS'cartwheel.target.com'
p3389
I1
sS'www.native-instruments.com'
p3390
I1
sS'www.gimmesomeoven.com'
p3391
I1
sS'Realgirlskitchen.co'
p3392
I1
sS'www.elle.com'
p3393
I1
sS'www.projectsunlight.us'
p3394
I1
sS'theoldstonewall.blogspot.com'
p3395
I1
sS'followinginmyshoes.com'
p3396
I1
sS'www.shop.co'
p3397
I1
sS'simplemisfit.com'
p3398
I1
sS'www.dreamshomedecor.com'
p3399
I1
sS'www.lynboyer.net'
p3400
I1
sS'bingepod.com'
p3401
I1
sS'www.aha.org'
p3402
I1
sS'www.democratandchronicle.com'
p3403
I1
sS'www.redneckrealitycheck.com'
p3404
I1
sS'ideas.ted.com'
p3405
I1
sS'm.wsvn.com'
p3406
I2
sS'fox2now.com'
p3407
I1
sS'tastyfoodsnacks.com'
p3408
I4
sS'www.designboom.com'
p3409
I1
sS'la-story.com'
p3410
I1
sS'whitney.org'
p3411
I1
sS'yoyodyne.files.wordpress.com'
p3412
I1
sS'www.schar.com'
p3413
I1
sS'www.yahoo.com'
p3414
I5
sS'backyardlivingparadise.com'
p3415
I1
sS'stuffspec.com'
p3416
I1
sS'www.zillow.com'
p3417
I1
sS'www.pymnts.com'
p3418
I2
sS'sqor.com'
p3419
I2
sS'www.summerstclaire.com'
p3420
I1
sS'www.getyourfullcourse.com'
p3421
I1
sS'www.travelpulse.com'
p3422
I3
sS'www.fairfaxcounty.gov'
p3423
I1
sS'www.army.mil'
p3424
I1
sS'blog.blavity.com'
p3425
I1
sS'nubry.com'
p3426
I3
sS'www.wrightbusinessit.com'
p3427
I2
sS'www.boredpanda.com'
p3428
I1
sS'newsnetwork.mayoclinic.org'
p3429
I1
sS'www.playbuzz.com'
p3430
I1
sS'mypinterventures.com'
p3431
I1
sS'www.tphnd.org'
p3432
I1
sS'woola-oops.com'
p3433
I1
sS'GunHoppy.co'
p3434
I1
sS'MovieTrailerBinge.co'
p3435
I1
sS'www.rhinestonewear.org'
p3436
I1
sS'www.refinery29.com'
p3437
I1
sS'www.food.com'
p3438
I5
sS'www.bighospitality.co.uk'
p3439
I1
sS'open.spotify.com'
p3440
I1
sS'www.livingalongsidewildlife.com'
p3441
I1
sS'www.bottlenotes.com'
p3442
I1
sS'tipwriter.expertscolumn.com'
p3443
I1
sS'www.internetretailer.com'
p3444
I1
sS'polishpotteryplace.com'
p3445
I1
sS'www.laurenpaints.com'
p3446
I1
sS'zoligirls.co'
p3447
I1
sS'news.nationalgeographic.com'
p3448
I1
sS'www.chicagonow.com'
p3449
I1
sS'abookgeek.com'
p3450
I1
sS'www.errisspeaks.com'
p3451
I1
sS'ohwtf.me'
p3452
I1
sS'www.jamieoliver.com'
p3453
I2
sS'www.booooooom.com'
p3454
I1
sS'www.gaiamtv.com'
p3455
I1
sS'www.worldandbeyond.com'
p3456
I1
sS'www.fiksu.com'
p3457
I1
sS'www.cntraveler.com'
p3458
I1
sS'www.eonline.com'
p3459
I2
sS'domesticvocation.wordpress.com'
p3460
I1
sS'www.aspca.org'
p3461
I1
sS'www.courier-journal.com'
p3462
I1
sS'boingboing.net'
p3463
I1
sS'www.stackingcoinssavingmoney.com'
p3464
I2
sS'blog.cambriawines.com'
p3465
I2
sS'www.npr.org'
p3466
I4
sS'www.location3.com'
p3467
I1
sS'recipes.howstuffworks.com'
p3468
I1
sS'theamericanmama.com'
p3469
I1
sS'www.jodiegasson.com'
p3470
I1
sS'sputniknews.com'
p3471
I1
sS'all-things-andy-gavin.com'
p3472
I2
sS'www.tiffanyleegaston.com'
p3473
I1
sS'www.pch.com'
p3474
I2
sS'eightysixthepoet.blogspot.com'
p3475
I1
sS'thetribemagazine.com'
p3476
I1
sS'cookingwithmanuela.blogspot.com'
p3477
I1
sS'www.welchs.com'
p3478
I1
sS'ipi.mobi'
p3479
I1
sS'www.eroticmusclevideos.com'
p3480
I1
sS'www.goetzecandy.com'
p3481
I2
sS'www.cleveland.com'
p3482
I1
sS'www.simplysated.com'
p3483
I1
sS'momastery.com'
p3484
I1
sS'WeedBinge.co'
p3485
I1
sS'www.infowars.com'
p3486
I2
sS'www.ericjgates.co'
p3487
I1
sS'www.today.com'
p3488
I2
sS'www2.dollargeneral.com'
p3489
I1
sS'www.brucesallan.com'
p3490
I3
sS'www.eventbrite.com'
p3491
I1
sS'www.mindbodygreen.com'
p3492
I1
sS'www.anna.aero'
p3493
I1
sS'kavvanah.wordpress.com'
p3494
I1
sS'www.ministylediary.com'
p3495
I1
sS'www.eweek.com'
p3496
I1
sS'VideoGameBinge.co'
p3497
I1
sS'americanbinge.com'
p3498
I1
sS'tweet-eye.com'
p3499
I1
sS'wella08.wix.com'
p3500
I1
sS'food52.com'
p3501
I1
sS'leweb.co'
p3502
I1
sS'save-a-lot.com'
p3503
I1
sS'www.greyenterprisesholdings.co'
p3504
I1
sS'music.cbc.ca'
p3505
I1
sS'dealfuel.com'
p3506
I1
sS'www.travelchannel.com'
p3507
I2
sS'www.thegreekglutton.com'
p3508
I1
sS'www.daytonlocal.com'
p3509
I1
sS'www.salon.com'
p3510
I1
sS'godwinsalways.blogspot.com'
p3511
I1
sS'www.care2.com'
p3512
I1
sS'www.sponsor-now.org'
p3513
I1
sS'www.heymanhustle.com'
p3514
I2
sS'www.mobilecommercedaily.com'
p3515
I2
sS'www.1800flowers.com'
p3516
I1
sS'UselesDiversion.co'
p3517
I1
sS'www.bigquestionsonline.com'
p3518
I1
sS'easyofficeparty.com'
p3519
I1
sS'practicallystylish.weebly.com'
p3520
I1
sS'www.businessinsider.com'
p3521
I3
sS'101thingstodosw.com'
p3522
I1
sS'www.bunicomic.com'
p3523
I1
sS'us3.campaign-archive2.com'
p3524
I1
sS'www.nba.com'
p3525
I1
sS'www.nicee.co'
p3526
I1
sS'hubpages.com'
p3527
I1
sS'contentmarketinginstitute.com'
p3528
I1
sS'snip.ly'
p3529
I1
sS'dailysignal.com'
p3530
I1
sS'www.pediastaff.com'
p3531
I1
sS'www.foodie.com'
p3532
I1
sS'chefaaronsanchez.com'
p3533
I1
sS'mels-corner.blogspot.com'
p3534
I1
sS'www.chefscatalog.com'
p3535
I2
sS'www.LabellCuttingBoards.co'
p3536
I1
sS'www.newcelebswear.com'
p3537
I1
sS'www.rosedogbookstore.com'
p3538
I1
sS'gallys.bigtitvenera.com'
p3539
I1
sS'yahoonewsdigest-us.tumblr.com'
p3540
I1
sS'fansign.co'
p3541
I1
sS'www.slate.com'
p3542
I4
sS'www.hpc.ncep.noaa.gov'
p3543
I1
sS'www.quigleyfinewines.com'
p3544
I1
sS'scontent-a.cdninstagram.com'
p3545
I1
sS'rudebate.wordpress.com'
p3546
I1
sS'passthesushi.com'
p3547
I2
sS'ktvu-lh.akamaihd.net'
p3548
I1
sS'www.modelinia.com'
p3549
I1
sS'www.glutenfreepalate.com'
p3550
I1
sS'www.foodandwine.com'
p3551
I2
sS'all-that-is-interesting.com'
p3552
I1
sS'www.responsivedesignblog.com'
p3553
I1
sS'venturebeat.com'
p3554
I2
sS'instagram.com'
p3555
I246
sS'www.gofundme.com'
p3556
I2
sS'blogs.scientificamerican.com'
p3557
I1
sS'www.kinkbomb.com'
p3558
I1
sS'www.tennessean.com'
p3559
I1
sS'themommyisland.blogspot.com'
p3560
I1
sS'ilovemydogmorethanmykids.com'
p3561
I1
sS'americancouncilssee.wordpress.com'
p3562
I1
sS'www.zazzle.com'
p3563
I8
sS'atticsaltblog.blogspot.com'
p3564
I1
sS'www.aftermidnite.com'
p3565
I1
sS'honkytonkfit.com'
p3566
I1
sS'www.qponjunkie.com'
p3567
I1
sS'greatist.com'
p3568
I1
sS'dailycaller.com'
p3569
I1
sS'www.tconfidential.com'
p3570
I1
sS'www.britishmuseum.org'
p3571
I1
sS'fox4kc.com'
p3572
I1
sS'blog.foodnetwork.com'
p3573
I2
sS'slavsn01.tumblr.com'
p3574
I1
sS'www.professu.com'
p3575
I1
sS'www.frugalmaniacsuperdeals.com'
p3576
I1
sS'diamondxmedia.co'
p3577
I1
sS'fancyshanty.com'
p3578
I2
sS'www.amazon.co.uk'
p3579
I2
sS'www.stellaandjamie.com'
p3580
I1
sS'www.briandickinson.net'
p3581
I1
sS'www.andyinthecity.com'
p3582
I1
sS'bill.ccbill.com'
p3583
I1
sS'livedan330.com'
p3584
I3
sS'blog.cvent.com'
p3585
I1
sS'anglicanhistory.or'
p3586
I1
sS'www.judyanndavis.blogspot.co'
p3587
I1
sS'www.rappler.com'
p3588
I1
sS'www.thevideoink.com'
p3589
I2
sS'www.kdramastars.com'
p3590
I1
sS'www.swarmapp.com'
p3591
I3
sS'tunein.com'
p3592
I1
sS'www.latimes.com'
p3593
I5
sS'www.change.org'
p3594
I1
sS'www.seroundtable.com'
p3595
I2
sS'www.honolulumagazine.com'
p3596
I1
sS'BasketballBinge.co'
p3597
I1
sS'www.fulfillmentdaily.com'
p3598
I1
sS'engageeducateandentertain.blogspot.com'
p3599
I1
sS'gallys.40somethingmag.com'
p3600
I2
sS'blogs.nasa.gov'
p3601
I3
sS'www.reuters.com'
p3602
I1
sS'www.tate.org.uk'
p3603
I1
sS'www.msnbc.com'
p3604
I1
sS'www.couponingfor4.net'
p3605
I1
sS'www.detroitnews.com'
p3606
I1
sS'www.health.harvard.edu'
p3607
I1
sS'www.ediblearrangements.com'
p3608
I1
sS'allanimalrights.org'
p3609
I1
sS'www.lafoodbank.org'
p3610
I1
sS'www.jamesbeard.org'
p3611
I4
sS'www.diaryofaworkingmom.com'
p3612
I1
sS'socialindc.com'
p3613
I1
sS'www.youcaring.com'
p3614
I1
sS'jimmcilvaine.sportsblog.com'
p3615
I1
sS'kandkadventures.com'
p3616
I1
sS'www.secular.org'
p3617
I1
sS'themichiganmom.com'
p3618
I1
sS'musteredlady.com'
p3619
I1
sS'khalilicenter.com'
p3620
I1
sS'www.floridatoday.com'
p3621
I1
sS'www.google.com'
p3622
I1
sS'www.whitehouse.gov'
p3623
I1
sS'lunascam.co'
p3624
I1
sS'www.mahamosa.com'
p3625
I1
sS'www.nowness.com'
p3626
I1
sS'www.amazon.com'
p3627
I29
sS'www.tilt.com'
p3628
I2
sS'enlightenmentdaily.blogspot.com'
p3629
I1
sS'DIYBinge.co'
p3630
I1
sS'uselessdiversion.com'
p3631
I1
sS'tbo.com'
p3632
I1
sS'www.wholefoodsmarket.com'
p3633
I14
sS'benswann.com'
p3634
I1
sS'thebrewbuzz.com'
p3635
I1
sS'www.terencepereira.com'
p3636
I1
sS'sarahwilsondogexpert.com'
p3637
I1
sS'sisterssuitcaseblog.com'
p3638
I1
sS'www.atlantahoopstv.com'
p3639
I1
sS'www.kdnuggets.com'
p3640
I1
sS'atlanta.schmap.com'
p3641
I2
sS'thinkprogress.org'
p3642
I5
sS'philadelphia.cbslocal.com'
p3643
I3
sS'www.telegraph.co.uk'
p3644
I1
sS'www.myfoxchicago.com'
p3645
I2
sS'www.onegreenplanet.org'
p3646
I8
sS'nbclearn.com'
p3647
I1
sS'www.laweekly.com'
p3648
I1
sS'www.cbs.com'
p3649
I2
sS'www.seemonterey.com'
p3650
I1
sS'mariashriver.com'
p3651
I1
sS'lifeishotblog.wordpress.com'
p3652
I1
sS'www.jamesray.com'
p3653
I1
sS'www.pauladeen.com'
p3654
I3
sS'www.senseswines.com'
p3655
I1
sS'guardianlv.com'
p3656
I1
sS'www.grilling24x7.com'
p3657
I1
sS'iteachblogging.com'
p3658
I1
sS'carolaround.com'
p3659
I1
sS'www.pacificainstitute.org'
p3660
I1
sS'www.brainpickings.org'
p3661
I1
sS'www.sportsnewsjunkie.com'
p3662
I1
sS'm.iroking.com'
p3663
I1
sS'lefthandbrewing.com'
p3664
I1
sS'hintmama.com'
p3665
I1
sS'www.tsu.co'
p3666
I1
sS'camerondouglasms.blogspot.co.nz'
p3667
I1
sS'blog.lxvwine.com'
p3668
I1
sS'www.freedible.com'
p3669
I1
sS'uviart.blogspot.com'
p3670
I2
sS'brokehorrorfan.com'
p3671
I1
sS'cookingchatfood.com'
p3672
I1
sS'foodgawker.com'
p3673
I1
sS'greenpaperproducts.com'
p3674
I1
sS'movietrailerbinge.com'
p3675
I1
sS'www.oasap.com'
p3676
I3
sS'www.thismamaloves.com'
p3677
I1
sS'www.vegetariantimes.com'
p3678
I1
sS'www.spreaker.com'
p3679
I1
sS'adoreyourhomeblog.weebly.com'
p3680
I1
sS'star1025.com'
p3681
I1
sS'jacksonville.com'
p3682
I1
sS'www.philadelphianquirer.com'
p3683
I1
sS'www.loveandpainbymistresschloe.com'
p3684
I1
sS'blog.loukavar.com'
p3685
I1
sS'SkatePunkClub.co'
p3686
I1
sS'www.mywell-being.com'
p3687
I1
sS'blog.esurance.com'
p3688
I2
sS'www.pushtechnology.com'
p3689
I1
sS'paulsohn.org'
p3690
I1
sS'bookish-ambition.blogspot.co.il'
p3691
I1
sS'www.abbywinters.com'
p3692
I1
sS'www.wkbw.com'
p3693
I2
sS'BingeTube.co'
p3694
I1
sS'natashablackthorneblog.blogspot.com'
p3695
I2
sS'smpauthors.wordpress.com'
p3696
I1
sS'www.castleviewacademy.com'
p3697
I1
sS'www.thekingsassembly.org'
p3698
I1
sS'www.complex.com'
p3699
I1
sS'GasAndClutch.co'
p3700
I1
sS'www.hitchedmag.com'
p3701
I1
sS'get.uber.com'
p3702
I1
sS'www.sportstalkflorida.com'
p3703
I1
sS'ciw-online.org'
p3704
I1
sS'cupcakesandkalechips.com'
p3705
I1
sS'secure3.convio.net'
p3706
I1
sS'diybinge.com'
p3707
I6
sS'seattleorganicrestaurants.co'
p3708
I1
sS'moviewriternyu.wordpress.com'
p3709
I2
sS'my.socialtoaster.com'
p3710
I1
sS'www.peaceislands.org'
p3711
I2
sS'betterinbulk.net'
p3712
I1
sS'www.internetusersagainstcancer.com'
p3713
I1
sS'www.freepeople.com'
p3714
I1
sS'imjulie.com'
p3715
I1
sS'blog.thenest.com'
p3716
I1
sS'www.bellanaija.com'
p3717
I1
sS'www.rollhaven.com'
p3718
I1
sS'perezhilton.com'
p3719
I2
sS'www.blurryme.co'
p3720
I1
sS'blog.bit9.com'
p3721
I1
sS'BingeVideo.co'
p3722
I1
sS'vegsource.co'
p3723
I1
sS'www.celebritybabyscoop.com'
p3724
I1
sS'www.brooklynbrand.us'
p3725
I2
sS'appbounty.net'
p3726
I1
sS'timesofindia.indiatimes.com'
p3727
I1
sS'www.butterballabuse.co'
p3728
I1
sS'www.betweenthekids.com'
p3729
I3
sS'animals.nationalgeographic.com'
p3730
I1
sS'auto.ferrari.com'
p3731
I1
sS'successparoxysm.com'
p3732
I1
sS'www.missinformationblog.com'
p3733
I1
sS'www.surfandsunshine.com'
p3734
I2
sS'trendsmap.com'
p3735
I1
sS'www.mojahedin.com'
p3736
I2
sS'www.coldknowledge.com'
p3737
I1
sS'edibleash.squarespace.com'
p3738
I1
sS'jeanllee.blogspot.co'
p3739
I1
sS'www.bubblews.com'
p3740
I12
sS'sewcraftable.blogspot.com'
p3741
I1
sS'www.entertainmentwise.com'
p3742
I1
sS'coa.sagepub.com'
p3743
I1
sS'PointlessDistraction.co'
p3744
I1
sS'www.foodsafety.gov'
p3745
I3
sS'www.lemoinefamilykitchen.com'
p3746
I1
sS'www.ecommercebytes.com'
p3747
I1
sS'www.surlatable.com'
p3748
I1
sS'breakfvst.com'
p3749
I1
sS'www.oxfamamerica.org'
p3750
I1
sS'collection.whitney.org'
p3751
I1
sS'www.belterrapark.com'
p3752
I1
sS'HockeyBinge.co'
p3753
I1
sS'www.inma.org'
p3754
I1
sS'fashionunited.com'
p3755
I1
sS'www.latporn.com'
p3756
I1
sS'www.trucking.org'
p3757
I1
sS'frontporchinspired.com'
p3758
I1
sS'minnesota.cbslocal.com'
p3759
I3
sS'www.selfveda.com'
p3760
I3
sS'wishesndishes.com'
p3761
I2
sS'www.sif.org.sg'
p3762
I1
sS'www.nbcdfw.com'
p3763
I1
sS'nickisrandommusings.com'
p3764
I11
sS'totalFreqs'
p3765
I4478
sS'www.akturner.com'
p3766
I1
sS'www.surgicalbusinessmodelinnovation.com'
p3767
I1
sS'www.fox.com.au'
p3768
I1
sS'woobox.com'
p3769
I1
sS'www.diynetwork.com'
p3770
I1
sS'socialimpactarchitects.com'
p3771
I1
sS'naptimeismytime.com'
p3772
I1
sS'jessicacollins.com'
p3773
I1
sS'twitter.imageshack.com'
p3774
I1
sS'www.ready.gov'
p3775
I1
sS'sunnyinlondon.com'
p3776
I1
sS'www.mymcmedia.org'
p3777
I1
sS'www.keelinggallery.co'
p3778
I1
sS'chris-bordeleau.artistwebsites.com'
p3779
I1
sS'blog.diynetwork.com'
p3780
I1
sS'www.nyc.gov'
p3781
I1
sS'www.medicaljane.com'
p3782
I1
sS'www.gregoryajohnson.com'
p3783
I1
sS'blogs.salesforce.com'
p3784
I3
sS'sarahhearts.com'
p3785
I1
sS'www.nugreencontracting.com'
p3786
I1
sS'www.dairymoos.com'
p3787
I1
sS'HipHopBinge.co'
p3788
I1
sS'skatepunkclub.com'
p3789
I1
sS'www.theperfectdetails.com'
p3790
I2
sS'bookmarketingbuzzblog.blogspot.com'
p3791
I1
sS'udisglutenfree.com'
p3792
I2
sS'sassyschnauzer.com'
p3793
I1
sS'cookery-ideas.co.uk'
p3794
I2
sS'www.shirleycorder.com'
p3795
I1
sS'blog.lef.org'
p3796
I1
sS'abc13.com'
p3797
I1
sS'giphy.com'
p3798
I1
sS'rockhall.com'
p3799
I1
sS'www.jimmydean.com'
p3800
I1
sS'cakeandbubbly.blogspot.com'
p3801
I1
sS'www.vox.com'
p3802
I2
sS'rucadaveshow.libsyn.com'
p3803
I1
sS'www.desertsun.com'
p3804
I1
sS'sheswickedhealthy.com'
p3805
I2
sS'blog.infolinks.com'
p3806
I1
sS'www.mnh.si.edu'
p3807
I1
sS'pointlessdistraction.com'
p3808
I3
sS'www.massvacation.com'
p3809
I1
sS'newsjunkiepost.com'
p3810
I1
sS'lh5.googleusercontent.com'
p3811
I2
sS'oceanservice.noaa.gov'
p3812
I1
sS'www.uglychristmassweatershirts.com'
p3813
I1
sS'www.traditionalhome.com'
p3814
I1
sS'www.hillbillysanta.com'
p3815
I1
sS'www.vogue.com'
p3816
I2
sS'www.fsis.usda.gov'
p3817
I1
sS'www.washingtontimes.com'
p3818
I1
sS'theomaway.com'
p3819
I1
sS'tour.naughtyamerica.com'
p3820
I1
sS'www.devicebondage.com'
p3821
I1
sS'www.darkangelsandprettyfreaks.com'
p3822
I1
sS'www.canewse.com'
p3823
I17
sS'www.kmbc.com'
p3824
I1
sS'xaameriki.wordpress.com'
p3825
I1
sS'drinks.seriouseats.com'
p3826
I1
sS'www.marinmommies.com'
p3827
I1
sS'ChiquisOnline.co'
p3828
I1
sS'www.theglobeandmail.com'
p3829
I1
sS'blog.oup.com'
p3830
I1
sS'www.jesustweeters.com'
p3831
I1
sS'www.koit.com'
p3832
I1
sS'www.khou.com'
p3833
I2
sS'www.businessforafairminimumwage.org'
p3834
I1
sS'www.newportmed.com'
p3835
I1
sS'www.actionaid.org.uk'
p3836
I1
sS'm.space.com'
p3837
I1
sS'www.foxcarolina.com'
p3838
I1
sS'ottawa.bibliocommons.com'
p3839
I1
sS'www.ncr-iran.org'
p3840
I1
sS'www.biggone.com'
p3841
I2
sS'whatscookingamerica.net'
p3842
I1
sS'Vickyathome.co'
p3843
I1
sS'www.petmd.com'
p3844
I1
sS'www.weareiowa.com'
p3845
I1
sS'blog.heart.org'
p3846
I1
sS'www.bostonglobe.com'
p3847
I1
sS'www.apartmenttherapy.com'
p3848
I1
sS'www.usatoday.com'
p3849
I1
sS'www.freep.com'
p3850
I1
sS'blog.savesfbay.org'
p3851
I1
sS'www.savingsinseconds.com'
p3852
I1
sS'humor.about.com'
p3853
I1
sS'pets.petsmart.com'
p3854
I1
sS'leaders.edweek.org'
p3855
I1
sS'www.classicmoviehub.com'
p3856
I1
sS'www.bigspringenvironmental.com'
p3857
I1
sS'thegirlnextdoorisblack.com'
p3858
I1
sS'abyafashionblog.com'
p3859
I1
sS'FootballBinge.co'
p3860
I1
sS'www.myfoxla.com'
p3861
I1
sS'www.hwalibrary.com'
p3862
I1
sS'www.JoyCollinsMusic.co'
p3863
I1
sS'www.bellahousewares.com'
p3864
I2
sS'www.mommalew.com'
p3865
I1
sS'booksbywomen.org'
p3866
I1
sS'us.hellomagazine.com'
p3867
I1
sS'www.flickr.com'
p3868
I3
sS'www.jellobeans.com'
p3869
I1
sS'www.runningonhappy.com'
p3870
I1
sS'community.ew.com'
p3871
I1
sS'onejohnmitchell.com'
p3872
I1
sS'commonhealth.wbur.org'
p3873
I1
sS'healthimpactnews.com'
p3874
I1
sS'ourpresidents.tumblr.com'
p3875
I1
sS'www.towergarden.com'
p3876
I1
sS'soundcloud.com'
p3877
I6
sS'eatsporkjew.com'
p3878
I1
sS'www.mediafire.com'
p3879
I1
sS'psalmistspad.blogspot.com'
p3880
I1
sS'www.eatbreathemoveheal.com'
p3881
I1
sS'www.shabbatautomation.com'
p3882
I1
sS'evolve24.com'
p3883
I1
sS'www.godiva.com'
p3884
I1
sS'inf3kted.com'
p3885
I1
sS'hemp.org'
p3886
I1
sS'archive.aweber.com'
p3887
I2
sS'www.chooseveg.com'
p3888
I3
sS'attitudeofgratitude.typepad.com'
p3889
I1
sS'www.virtuagirl.com'
p3890
I1
sS'www.crossfiteado.com'
p3891
I1
sS'ssl.clickbank.net'
p3892
I1
sS'weedbinge.com'
p3893
I1
sS'www.tastingtable.com'
p3894
I4
sS'www.dvdfab.cn'
p3895
I1
sS'www.sarah-mcdonald.com'
p3896
I1
sS'3QuartersToday.com'
p3897
I2
sS'www.nailpro.com'
p3898
I1
sS'www.finlit.com'
p3899
I1
sS'www.examiner.com'
p3900
I2
sS'theladylovescouture.com'
p3901
I1
sS'www.craftymorning.com'
p3902
I1
sS'enjoyingthisjourney.com'
p3903
I5
sS'www.linkedin.com'
p3904
I4
sS'www.ExposeTheTPP.or'
p3905
I1
sS'newagemama.blogspot.com'
p3906
I1
sS'crazy-people.greatpix.me'
p3907
I1
sS'www.dmnews.com'
p3908
I1
sS'bieber.trendolizer.com'
p3909
I1
sS'thecripplegate.com'
p3910
I1
sS'aldianews.com'
p3911
I1
sS'www.blisstree.com'
p3912
I1
sS'www.ktvu.com'
p3913
I2
sS'fancy.com'
p3914
I1
sS'smslwithheidi.co'
p3915
I1
sS'www.history.com'
p3916
I1
sS'theyolandaadamsmorningshow.com'
p3917
I1
sS'www.lulu.com'
p3918
I2
sS'www.stjamesnews.com'
p3919
I1
sS'onemicmagazine.com'
p3920
I1
sS'gigaom.com'
p3921
I1
sS'www.airpush.com'
p3922
I1
sS'www.orlandosentinel.com'
p3923
I1
sS'history1800s.about.com'
p3924
I1
sS'www.sears.com'
p3925
I1
sS'www.aspicyperspective.com'
p3926
I1
sS'www.eia.gov'
p3927
I1
sS'www.pluggedin.com'
p3928
I1
sS'www.homebrewchef.com'
p3929
I2
sS'cloakinginequity.com'
p3930
I1
sS'www.addictinginfo.org'
p3931
I1
sS'www.1800flowers.com:80'
p3932
I1
sS'www.etsy.com'
p3933
I74
sS'www.x17online.com'
p3934
I2
sS'thegprgab.wordpress.com'
p3935
I1
sS'www.mytailhurtsfromwaggingsomuch.com'
p3936
I1
sS'www.pbs.org'
p3937
I4
sS'creatormagazine.com'
p3938
I1
sS'www.boston.com'
p3939
I3
sS'www.mommatoldmeblog.com'
p3940
I1
sS'www.theverge.com'
p3941
I1
sS'www.prnewsonline.com'
p3942
I2
sS'danoinyc.com'
p3943
I1
sS'highlandsministriesonline.org'
p3944
I1
sS'gallys.scoreland.com'
p3945
I7
sS'www.alcoholprofessor.com'
p3946
I1
sS'pixaroma.com'
p3947
I1
sS'centuryplaza.hyatt.com'
p3948
I1
sS'www.nbcnewyork.com'
p3949
I1
sS'www.myuniverse.co.in'
p3950
I1
sS'ottawacitizen.com'
p3951
I1
sS'www.dadt.com'
p3952
I1
sS'halloweenbinge.com'
p3953
I1
sS'www.feltwithlovedesigns.com'
p3954
I10
sS'www.wallmiami.com'
p3955
I1
sS'michaelrosensays.wordpress.com'
p3956
I1
sS'www.easyclicktravel.com'
p3957
I1
sS'hotsmart.blogspot.com'
p3958
I1
sS'www.komodokamado.com'
p3959
I1
sS'realfoodrealkitchens.com'
p3960
I1
sS'gallys.xlgirls.com'
p3961
I1
sS'chiikyna.blogspot.com'
p3962
I1
sS'www.nj.com'
p3963
I1
sS'splashtablet.co'
p3964
I1
sS'www.TheDatingDivas.co'
p3965
I1
sS'www.ticketfly.com'
p3966
I1
sS'www.residentadvisor.net'
p3967
I1
sS'www.huggies.com'
p3968
I1
sS'secure2.convio.net'
p3969
I1
sS'www.guerardmedia.com'
p3970
I1
sS'homemom3.com'
p3971
I1
sS'www.esolcourses.com'
p3972
I1
sS'www.brianswebworks.com'
p3973
I1
sS'hauteliving.com'
p3974
I1
sS'www.westernjournalism.com'
p3975
I1
sS'www.maersk.com'
p3976
I1
sS'mashable.com'
p3977
I4
sS'www.nowfoods.com'
p3978
I1
sS'www.KAOSradioAustin.or'
p3979
I1
sS'triblive.com'
p3980
I1
sS'www.a-kitchen-addiction.com'
p3981
I2
sS'www.badflix.net'
p3982
I1
sS'finance.yahoo.com'
p3983
I1
sS'www.creativebloq.com'
p3984
I1
sS'www.success.com'
p3985
I1
sS'praiseworkshealthandwellness.blogspot.com'
p3986
I1
sS'www.conventionofstates.com'
p3987
I2
sS'sirgryphon.deviantart.com'
p3988
I1
sS'www.buzzfeed.com'
p3989
I8
sS'www.seattlemet.com'
p3990
I1
sS'www.shadyfrog.com'
p3991
I1
sS'www.vocativ.com'
p3992
I1
sS'blog.blockchain.com'
p3993
I1
sS'www.jokeblogger.com'
p3994
I2
sS'www.chicagotofrance.com'
p3995
I1
sS'fee.org'
p3996
I1
sS'www.blackenterprise.com'
p3997
I1
sS'theleadershipacademy.blogspot.co.uk'
p3998
I1
sS'www.icontact-archive.com'
p3999
I1
sS'www.benjerry.com'
p4000
I1
sS'metro.co.uk'
p4001
I1
sS'blogs.psychcentral.com'
p4002
I1
sS'sites.securepaynet.net'
p4003
I2
sS'www.jordanwinery.com'
p4004
I1
sS'www.israelhayom.com'
p4005
I1
sS'myblogu.com'
p4006
I1
sS'therevue.ca'
p4007
I1
sS'www.actorsreporter.com'
p4008
I1
sS'fineartamerica.com'
p4009
I1
sS'www.puffpastry.com'
p4010
I1
sS'www.comebackmomma.com'
p4011
I1
sS'www.peta.org'
p4012
I12
sS'www.projectaware.org'
p4013
I1
sS'www.downloadnewthemes.com'
p4014
I1
sS'www.WrightBusinessIT.com'
p4015
I1
sS'themacysthanksgivingdayparade.blogspot.com'
p4016
I1
sS'jesterofchaos.listen2myradio.com'
p4017
I1
sS'blogs.hrhero.com'
p4018
I1
sS'www.shareasale.com'
p4019
I16
sS'clips4sale.com'
p4020
I1
sS'www.recipesfromanormalmum.com'
p4021
I1
sS'www.stumbleupon.com'
p4022
I2
sS'www.adventuresincoupons.com'
p4023
I1
sS'abcnews.go.com'
p4024
I1
sS'aftcra.com'
p4025
I1
sS'www.totallyhomeimprovement.com'
p4026
I1
sS'www.eei.org'
p4027
I1
sS'www.churchwork.com'
p4028
I1
sS'sickflyers.co'
p4029
I1
sS'followsummer.me'
p4030
I1
sS'www.yrbmagazine.com'
p4031
I1
sS'FOX2now.co'
p4032
I1
sS'www.inetwebsystems.co'
p4033
I1
sS'TurkeyTrot.com'
p4034
I1
sS'foodtwitter.com'
p4035
I1
sS'www.pastemagazine.com'
p4036
I2
sS'in.twirus.co'
p4037
I1
sS'cdn.knightlab.com'
p4038
I1
sS'www.bhg.com'
p4039
I1
sS'mortalglobe.com'
p4040
I1
sS'www.itly.com'
p4041
I1
sS'www.ecoisms.com'
p4042
I1
sS'www.haaretz.com'
p4043
I1
sS'writeitforward.edublogs.or'
p4044
I1
sS'edisonleecomic.com'
p4045
I1
sS'www.beautifulbooze.com'
p4046
I1
sS'kabobpdx.us9.list-manage.com'
p4047
I1
sS'pelletgrillgiveaway.pgtb.me'
p4048
I1
sS'www.forbes.com'
p4049
I5
sS'janeunchained.com'
p4050
I1
sS'www.americanmanufacturing.org'
p4051
I1
sS'www.valetmag.com'
p4052
I1
sS'www.institutionalinvestor.com'
p4053
I1
sS'www.rac.org'
p4054
I1
sS'tabulaa.co'
p4055
I1
sS'www.unitedcakedom.com'
p4056
I1
sS'www.wayfair.com'
p4057
I1
sS'www.fivehearthome.com'
p4058
I1
sS'www.steelorbis.com'
p4059
I1
sS'www.homeserveusa.com'
p4060
I1
sS'thehill.com'
p4061
I1
sS'www.agencyprotalent.com'
p4062
I1
sS'www.hirschi.se'
p4063
I1
sS'www.dentalden.in'
p4064
I1
sS'www.papillionforeignmotors.com'
p4065
I1
sS'www.uschamberfoundation.org'
p4066
I1
sS'cakerecipebook.com'
p4067
I1
sS'www.viralgist.com'
p4068
I1
sS'www.tehlozangeleztimez.com'
p4069
I8
sS'internship.greyenterprisesholdings.com'
p4070
I1
sS'ec.libsyn.com'
p4071
I3
sS'nikechillemi.wordpress.com'
p4072
I1
sS'crystalandcomp.com'
p4073
I1
sS'www.planetgoldilocks.com'
p4074
I3
sS'www.mercaditorestaurants.com'
p4075
I1
sS'www.dailymotion.com'
p4076
I1
sS'www.schoolinks.com'
p4077
I1
sS'www.zagat.com'
p4078
I1
sS'jadeumbrella.com'
p4079
I1
sS'www.justjaredjr.com'
p4080
I1
sS'strk.gnlinks.com'
p4081
I2
sS'www.livemint.com'
p4082
I1
sS'pointlessdiversion.com'
p4083
I2
sS'multichannelmerchant.com'
p4084
I1
sS'www.weber.com'
p4085
I2
sS'www.entrepreneur.com'
p4086
I2
sS'www.foodnetwork.com'
p4087
I9
sS'bobbyflay.com'
p4088
I1
sS'peacefulcooking.blogspot.com'
p4089
I1
sS'www.altrupreneur.com'
p4090
I1
sS'gazette.com'
p4091
I1
sS'mic.com'
p4092
I1
sS'www.fitbie.com'
p4093
I1
sS'marketingdigest.com'
p4094
I2
sS'jacquelynnesteves.com'
p4095
I1
sS'www.farmanddairy.com'
p4096
I1
sS'www.howardstern.com'
p4097
I1
sS'globalimpactchurchng.org'
p4098
I1
sS'www.hodgepodge.me'
p4099
I1
sS'mom.me'
p4100
I2
sS'goddess-cassandra.com'
p4101
I1
sS'www.porn.com'
p4102
I1
sS'marcgordonshow.com'
p4103
I1
sS'inadreambeyond.blogspot.com'
p4104
I1
sS'sluttygirlproblems.com'
p4105
I1
sS'www.innovationexcellence.com'
p4106
I1
sS'www.tulsapeople.com'
p4107
I1
sS'www.economist.com'
p4108
I1
sS'www.modbee.com'
p4109
I1
sS'www.counton2.com'
p4110
I1
sS'new.livestream.com'
p4111
I2
sS'theunaustralian.net'
p4112
I1
sS'www.publicdomainpictures.net'
p4113
I2
sS'www.52perfectdays.com'
p4114
I5
sS'www.mstarz.com'
p4115
I1
sS'www.smokeandsalt.com'
p4116
I1
sS'www-01.ibm.com'
p4117
I15
sS'fun919.com'
p4118
I1
sS'www.lisaeldridge.com'
p4119
I1
sS'www.bls.gov'
p4120
I1
sS'www.danielchurchill.com.au'
p4121
I1
sS'www.crimefictionlover.com'
p4122
I1
sS'vid.me'
p4123
I1
sS'www.voicesofliberty.com'
p4124
I1
sS'www.playboy.com'
p4125
I2
sS'clicksrvr.co'
p4126
I1
sS'themovetoamerica.wordpress.com'
p4127
I1
sS'www.wired.com'
p4128
I1
sS'beltwaybargainmom.com'
p4129
I1
sS'bullseyefx.com'
p4130
I1
sS'www.freefuninaustin.com'
p4131
I1
sS'www.bbc.co.uk'
p4132
I3
sS'medium.com'
p4133
I1
sS'www.morrisdailyherald.com'
p4134
I2
sS'www.trooptree.com'
p4135
I1
sS'info.kenrobertsondmd.com'
p4136
I1
sS'www.periodpanteez.com'
p4137
I1
sS'foodtank.com'
p4138
I1
sS'news.starbucks.com'
p4139
I1
sS'patrontequila.com'
p4140
I2
sS'twitter.com'
p4141
I1638
sS'coast.noaa.gov'
p4142
I1
sS'fox59.com'
p4143
I1
sS'www.ewg.org'
p4144
I1
sS'www.hulkshare.com'
p4145
I2
sS'www.huffingtonpost.com'
p4146
I18
sS'www.kosherinthekitch.com'
p4147
I1
sS'techcrunch.com'
p4148
I1
sS'thepowerofappreciation.blogspot.com'
p4149
I1
sS'theseamanmom.com'
p4150
I1
sS'www.WestsideThanksgiving.or'
p4151
I1
sS'www.fierceretail.com'
p4152
I1
sS'www.crossroadsaspen.com'
p4153
I1
sS'www.kitchenbug.com'
p4154
I1
sS'swich.to'
p4155
I1
sS'blog.theregularguynyc.com'
p4156
I1
sS'www.politico.com'
p4157
I1
sS'news.artnet.com'
p4158
I3
sS'www.softwaredevelopersinc.com'
p4159
I1
sS'www.bonappetit.com'
p4160
I1
sS'growingupbilingual.com'
p4161
I1
sS'www.sli-systems.com'
p4162
I1
sS'mag.activewearusa.com'
p4163
I1
sS'www.us-census.org'
p4164
I1
sS'www.asam.org'
p4165
I1
sS'www.everydayhealth.com'
p4166
I1
sS'www.budgettravel.com'
p4167
I1
sS'www.ryanseacrest.com'
p4168
I2
sS'www.rawstory.com'
p4169
I2
sS'saepta.com'
p4170
I1
sS'martinamcgowan.com'
p4171
I1
sS'voices.nationalgeographic.com'
p4172
I1
sS'patch.com'
p4173
I1
sS'retiringtothephilippines.com'
p4174
I2
sS'www.sex.com'
p4175
I4
sS'nca2014.globalchange.gov'
p4176
I1
ss.