(dp0
S'drinkdistiller.com'
p1
I1
sS'fortruss.blogspot.com'
p2
I2
sS'stanvanhoucke.blogspot.nl'
p3
I1
sS'thedailystar.net'
p4
I1
sS'www.compassion.ca'
p5
I2
sS'www.jeune-independant.net'
p6
I1
sS'www.corcoran.com'
p7
I1
sS'jamesonfink.com'
p8
I1
sS'www.patheos.com'
p9
I5
sS'www.freedible.com'
p10
I1
sS'm.adelaidenow.com.au'
p11
I1
sS'www.nugreencontracting.com'
p12
I1
sS'www.launchgood.com'
p13
I1
sS'www.unleash.com'
p14
I1
sS'www.goodhousekeeping.com'
p15
I1
sS'oliverpyattcentersblog.com'
p16
I1
sS'www.dailynews.com'
p17
I1
sS'www.sugardaily.ng'
p18
I2
sS'thepoliticalcarnival.net'
p19
I1
sS'www.biomedcentral.com'
p20
I1
sS'beritagar.com'
p21
I1
sS'www.theage.com.au'
p22
I14
sS'translate.google.ch'
p23
I4
sS'infectiousdiseases.about.com'
p24
I5
sS'www.europarl.europa.eu'
p25
I3
sS'openparachute.wordpress.com'
p26
I1
sS'blog.ucsusa.org'
p27
I1
sS'mosquitosquadnorthshore.wordpress.com'
p28
I1
sS'whoneedssexed.tumblr.com'
p29
I1
sS'fortruss.blogspot.co.uk'
p30
I1
sS'www.niburu.co'
p31
I1
sS'holidayheadquarter.blogspot.com'
p32
I3
sS'blogs.news.com.au'
p33
I3
sS'www.cityofdavidng.or'
p34
I1
sS'infinitelegroom.com'
p35
I1
sS'hwcdn.libsyn.com'
p36
I4
sS'weprotestify.co'
p37
I1
sS'www.quizopolis.com'
p38
I1
sS'investmentwatchblog.com'
p39
I3
sS'cannabisnowmagazine.com'
p40
I1
sS'www.facebook.com'
p41
I175
sS'inf3kted.com'
p42
I1
sS'www.sli-systems.com'
p43
I1
sS'www.thepresentfinder.co.uk'
p44
I1
sS'www.tearfund.org'
p45
I2
sS'www.turinepi.com'
p46
I1
sS'www.rankkin.com'
p47
I1
sS'twonerdyhistorygirls.blogspot.com'
p48
I1
sS'www.mintpressnews.com'
p49
I2
sS'scenesfromseattle.tumblr.com'
p50
I1
sS'greenpeaceblogs.org'
p51
I1
sS'www.thairath.co.th'
p52
I1
sS'blog.hubspot.com'
p53
I1
sS'feedthefuture.gov'
p54
I1
sS'm.canberratimes.com.au'
p55
I2
sS'www.wifr.com'
p56
I1
sS'rss2twi.com'
p57
I1
sS'news.joyr.net'
p58
I3
sS'www.weatherwatch.co.nz'
p59
I1
sS'www.airasia.com'
p60
I1
sS'humanitariannews.org'
p61
I7
sS'www.trendinalia.com'
p62
I3
sS'gordonua.com'
p63
I1
sS'www.cnn.com'
p64
I124
sS'trafficwaveforprofit.adobeconnect.com'
p65
I1
sS'shop.o2o.com'
p66
I1
sS'www.kitchendaily.com'
p67
I3
sS'www.evernote.com'
p68
I1
sS'blog.petaasiapacific.com'
p69
I1
sS'www.BirdmanTheMovie.com'
p70
I1
sS'horriblecrime.com'
p71
I1
sS'westsidethanksgiving.or'
p72
I1
sS'saltandwind.com'
p73
I1
sS'beforeitsnews.com'
p74
I11
sS'www.bellesprit.com'
p75
I1
sS'www.netflix.com'
p76
I1
sS'cooklime.com'
p77
I14
sS'econsultancy.com'
p78
I1
sS'www.twcnews.com'
p79
I1
sS'www.officialjenniferann.com?nats=MTAxOTcuMi44NS4xOTcuMjguMC4wLjAuM'
p80
I1
sS'www.wusa9.com'
p81
I1
sS'www.fabulousveganrecipes.com'
p82
I1
sS'clarioncontentmedia.com'
p83
I1
sS'www.cwsglobal.org'
p84
I1
sS'mw.ua'
p85
I1
sS'sherriequestioningall.blogspot.com'
p86
I1
sS'foodgawker.com'
p87
I1
sS'www.cnbc.com'
p88
I5
sS'www.dropbox.com'
p89
I3
sS'CHIKUNGUNYA.Toda'
p90
I1
sS'torispelling.com'
p91
I1
sS'www.nbcnews.com'
p92
I40
sS'www.heraldsun.com.au'
p93
I8
sS'adamatodl.tumblr.com'
p94
I1
sS'punkskateclub.com'
p95
I1
sS'host.madison.com'
p96
I1
sS'wwwnc.cdc.gov'
p97
I11
sS'is.gd'
p98
I1
sS'graphics.wsj.com'
p99
I2
sS'www.designboom.com'
p100
I1
sS'secure.peta.org'
p101
I1
sS'www.thenorthwestern.com'
p102
I1
sS'www.globalsecurity.org'
p103
I1
sS'Allrecipes.co'
p104
I1
sS'www.unian.info'
p105
I4
sS'm.todayonline.com'
p106
I3
sS'wyborcza.pl'
p107
I1
sS'mobile.dudamobile.com'
p108
I1
sS'www.wfaa.com'
p109
I1
sS'timfordphoto.com'
p110
I1
sS'www.paypal.com'
p111
I1
sS'www.voanews.com'
p112
I19
sS'thirdsectormagazine.com.au'
p113
I1
sS'mepc.org'
p114
I1
sS'www.nrc.nl'
p115
I5
sS'www.modulamini.com'
p116
I1
sS'blogs.unicef.org.uk'
p117
I3
sS'wakeupfromyourslumber.com'
p118
I1
sS'www.thejournal.ie'
p119
I1
sS'news.wustl.edu'
p120
I1
sS'airtraveller.org'
p121
I1
sS'www.ghafla.co.ke'
p122
I2
sS'www.worldaffairsjournal.org'
p123
I1
sS'welldined.com'
p124
I1
sS'www.eham.net'
p125
I1
sS'www.newkerala.com'
p126
I1
sS'info24.us'
p127
I1
sS'j.gs'
p128
I4
sS'stewartmarshall.tumblr.com'
p129
I1
sS'gmoinside.org'
p130
I1
sS'jakarta.coconuts.co'
p131
I2
sS'www.cloudlytics.com'
p132
I1
sS'm.boylesports.com'
p133
I1
sS'espanol.images.search.yahoo.com'
p134
I1
sS'www.health-bird.net'
p135
I1
sS'www.officialanndenise.com?nats=MTAxOTcuMi44MS4xOTMuMjguMC4wLjAuM'
p136
I1
sS'clss6.blogspot.co'
p137
I1
sS'harianterbit.com'
p138
I1
sS'friendsofsyria.co'
p139
I1
sS'www.diaryofaworkingmom.com'
p140
I1
sS'www.glamour.com'
p141
I5
sS'www.mymindblown.com'
p142
I1
sS'qz.com'
p143
I2
sS'TipWriter.expertscolumn.com'
p144
I1
sS'translate.google.be'
p145
I1
sS'www.skybrary.aero'
p146
I1
sS'm.en.vogue.fr'
p147
I1
sS'www.whathappenedtoflightmh17.com'
p148
I31
sS'www.greens.org.nz'
p149
I1
sS'pamplinmedia.com'
p150
I1
sS'www.thenews.pl'
p151
I1
sS'maps.google.com'
p152
I2
sS'panampost.com'
p153
I2
sS'juliedible.wordpress.com'
p154
I1
sS'volleyballaustralia.org'
p155
I1
sS'm.news.viva.co.id'
p156
I1
sS'www.vegetariantimes.com'
p157
I1
sS'www.inside.com'
p158
I6
sS'weather.com.ph'
p159
I4
sS'hotsmart.blogspot.com'
p160
I1
sS'jamaicabound123123.blogspot.com'
p161
I1
sS'www.pprune.org'
p162
I7
sS'maps.yandex.com'
p163
I1
sS'spiritofnorthernlights.com'
p164
I1
sS'irpi.eu'
p165
I1
sS'ronrambles.com'
p166
I3
sS'popcrush.com'
p167
I2
sS'www.livejasmin.com'
p168
I1
sS'star1025.com'
p169
I1
sS'petitions.whitehouse.gov'
p170
I2
sS'themotorstory.org'
p171
I1
sS'shoespost.com'
p172
I1
sS'porknoser.blogspot.com'
p173
I1
sS'ny.curbed.com'
p174
I1
sS'environment.yale.edu'
p175
I1
sS'adoreyourhomeblog.weebly.com'
p176
I1
sS'www.officialrachelmcdonald.com?nats=MTAxOTcuMi44Mi4xOTQuMjguMC4wLjAuM'
p177
I1
sS'www.thedodo.com'
p178
I1
sS'www.evergladesholidaypark.com'
p179
I1
sS'www.pestworld.org'
p180
I1
sS'www.anpfoto.nl'
p181
I2
sS'ens-newswire.com'
p182
I1
sS'detroit.cbslocal.com'
p183
I1
sS'uk.thetruth24.com'
p184
I4
sS'myemail.constantcontact.com'
p185
I3
sS'dragplus.com'
p186
I32
sS'portal.gdacs.org'
p187
I1
sS'www.mycomfor.com'
p188
I1
sS'www.forexwow.com'
p189
I2
sS'forthecountryrecord.com'
p190
I1
sS'stuffspec.com'
p191
I1
sS'secure.americares.org'
p192
I1
sS'www.yorkshiretimes.co.uk'
p193
I1
sS'www.thedenverchannel.com'
p194
I2
sS'zachnews.wordpress.com'
p195
I1
sS'JANEUNCHAINED.CO'
p196
I1
sS'www.a-pac.tv'
p197
I1
sS'www.emergencymgmt.com'
p198
I1
sS'www.care.org.au'
p199
I3
sS'www.asos.com'
p200
I2
sS'slavyangrad.de'
p201
I1
sS'www.sarawakiana.net'
p202
I1
sS'globaleconomicanalysis.blogspot.com'
p203
I3
sS'blessedistruth.wordpress.com'
p204
I1
sS'mommywithaplan.com'
p205
I1
sS'www.shopstyle.com'
p206
I1
sS'4buyersre.com'
p207
I1
sS'www.stasiareport.com'
p208
I5
sS'pjmedia.com'
p209
I2
sS'www.redcross.org.au'
p210
I2
sS'www.presstelegram.com'
p211
I1
sS'www.marathisanmaan.com'
p212
I1
sS'martinique.la1ere.fr'
p213
I1
sS'www.3drose.com'
p214
I1
sS'www.webn.com'
p215
I1
sS'insiders.aber.ac.uk'
p216
I1
sS'vineyardsaker.blogspot.pt'
p217
I1
sS'meduza.io'
p218
I1
sS'news.fiu.edu'
p219
I1
sS'soulofwit.com'
p220
I2
sS'nos.nl'
p221
I23
sS'm.espn.go.com'
p222
I1
sS'blog.loukavar.com'
p223
I1
sS'garyebrown.net'
p224
I1
sS'utr.tv'
p225
I1
sS'disasterresponse.maps.arcgis.com'
p226
I1
sS'theconversation.com'
p227
I9
sS'www.habitatforhumanity.org.uk'
p228
I1
sS'www.heifer.org'
p229
I2
sS'www.guns.com'
p230
I1
sS'smacktongue.co'
p231
I1
sS'philippineresponse.iom.int'
p232
I2
sS'www.thesca.org'
p233
I1
sS'www.talentculture.com'
p234
I1
sS'm.firstpost.com'
p235
I2
sS'www.raceforward.org'
p236
I1
sS'www.recipesandreviews.co.uk'
p237
I1
sS'oldschoolnewbody.com'
p238
I1
sS'www.boxercouch.co'
p239
I1
sS'www.msn.com'
p240
I1
sS'www.the-review.com'
p241
I1
sS'news.talk.ee'
p242
I1
sS'terrorincorporated.blogspot.com'
p243
I9
sS'visual.ly'
p244
I1
sS'www.singingthroughtherain.net'
p245
I1
sS'ukrainecrisisanamericandisaster.blogspot.com'
p246
I5
sS'blurbrain.com'
p247
I1
sS'www.bettybake.co.za'
p248
I1
sS'www.globalresearch.ca'
p249
I49
sS'www.ticketfly.com'
p250
I1
sS'openermedia.blogspot.com'
p251
I2
sS'www.frank-webb.com'
p252
I1
sS'hosted2.ap.org'
p253
I4
sS'debtfreeamerica.com'
p254
I1
sS'theaviationist.com'
p255
I1
sS'www.phac-aspc.gc.ca'
p256
I1
sS'www.theweathernetwork.com'
p257
I1
sS'www.themorganmag.com'
p258
I1
sS'www.ccc.govt.nz'
p259
I1
sS'www.adb.org'
p260
I1
sS'www.beritasatu.com'
p261
I1
sS'www.dddmag.com'
p262
I1
sS'nathanbeesley.wordpress.com'
p263
I1
sS'www.4thmedia.org'
p264
I4
sS'kripalu.org'
p265
I1
sS'nigeriabook.com.ng'
p266
I1
sS'www.travelpulse.com'
p267
I7
sS'www.themoscowtimes.com'
p268
I24
sS'natural-remedies.eshcarmel.org'
p269
I1
sS'www.21stcenturynews.com.au'
p270
I2
sS'www.opry.com'
p271
I1
sS'roberterkelens.wordpress.com'
p272
I1
sS'www.igorstrelkov.ru'
p273
I1
sS'www.kathilipp.com'
p274
I1
sS'www.climatecouncil.org.au'
p275
I2
sS'www.care.org'
p276
I1
sS'www.basarnas.go.id'
p277
I1
sS'cleaneatinggoddess.ca'
p278
I1
sS'm.isthmus.com'
p279
I1
sS'comptoncreekmad.org'
p280
I1
sS'videogamebinge.com'
p281
I1
sS'www.yelp.com'
p282
I2
sS'twitter.imageshack.com'
p283
I1
sS'www.ndrrmc.gov.ph'
p284
I2
sS'www.army.mil'
p285
I1
sS'www.chacha.com'
p286
I1
sS'humanityroad.org'
p287
I1
sS'www.futurahomedecorating.com'
p288
I1
sS'www.scoop.co.nz'
p289
I1
sS'fairdinkumradio.com'
p290
I1
sS'www.mediaite.com'
p291
I4
sS'yahs.ru'
p292
I1
sS'arthritis-research.com'
p293
I1
sS'www.residentadvisor.net'
p294
I1
sS'www.theritzlondon.com'
p295
I1
sS'simplyfabsupermom.wordpress.com'
p296
I1
sS'www.nasa.gov'
p297
I2
sS'www.franchiseherald.com'
p298
I1
sS'www.unz.com'
p299
I1
sS'www.thedailybeast.com'
p300
I6
sS'www.yelosangelestimes.com'
p301
I4
sS'www.ihail.com'
p302
I1
sS'gulfnews.co'
p303
I1
sS'www.iloveny.com'
p304
I3
sS'www.thenational.ae'
p305
I1
sS'www.stlucianewsonline.com'
p306
I1
sS'mutsol.com'
p307
I1
sS'khon2.com'
p308
I2
sS'www.vinotravelsitaly.com'
p309
I1
sS'bubblynaturecreations.com'
p310
I1
sS'robbreport.com'
p311
I1
sS'blog.educanon.com'
p312
I1
sS'www.exposethetpp.org'
p313
I1
sS'www.blacklistednews.com'
p314
I2
sS'irenecaesar.wordpress.com'
p315
I1
sS'www.airbus.com'
p316
I1
sS'www.tampabay.com'
p317
I1
sS'www.kidbiblelessons.com'
p318
I1
sS'blog.care.ca'
p319
I1
sS'johnlurieart.com'
p320
I1
sS'www.latenightsportsradio.com'
p321
I1
sS'www.samharris.org'
p322
I1
sS'www.crs.org'
p323
I3
sS'news.sky.com'
p324
I16
sS'mycrazyheadlines.blogspot.com'
p325
I7
sS'www.ketknbc.com'
p326
I2
sS'www.icao.int'
p327
I1
sS'www.brucesallan.com'
p328
I3
sS'www.dailyemerald.com'
p329
I1
sS'www.sukhoi.org'
p330
I1
sS'arsenalfordemocracy.com'
p331
I1
sS'www.ahcancal.org'
p332
I1
sS'www.undp.org'
p333
I1
sS'magdalene.co'
p334
I1
sS'blackbag.gawker.com'
p335
I1
sS'en.m.wikipedia.org'
p336
I2
sS'www.yummly.com'
p337
I1
sS'wigradio.co'
p338
I1
sS'www.valpak.com'
p339
I1
sS'freebeacon.com'
p340
I2
sS'21stcenturywire.com'
p341
I2
sS'searchengineland.com'
p342
I1
sS'easteuropeanfood.about.com'
p343
I1
sS'www.defensie.nl'
p344
I1
sS'articles.philly.com'
p345
I1
sS'tuoitrenews.vn'
p346
I2
sS'presstv.com'
p347
I1
sS'www.fsseed.com'
p348
I1
sS'press.fourseasons.com'
p349
I1
sS'www.teambeachbody.com'
p350
I1
sS'aanirfan.blogspot.co.uk'
p351
I1
sS'inside.iupui.edu'
p352
I1
sS'holyhillchurch.org'
p353
I1
sS'm.livescience.com'
p354
I2
sS'in.reuters.com'
p355
I3
sS'www.chennaivision.com'
p356
I1
sS'catastropheinsight.aonbenfield.com'
p357
I1
sS'saigoneer.com'
p358
I1
sS'www.wsj.com'
p359
I74
sS'arizonasports.com'
p360
I1
sS'm.sfgate.com'
p361
I1
sS'www.dailystar.com.lb'
p362
I7
sS'usa.thetruth24.co'
p363
I2
sS'blogs.crikey.com.au'
p364
I20
sS'www.goodbyemonsters.com'
p365
I1
sS'consciousshift2012.wordpress.com'
p366
I1
sS'www.rightpundits.com'
p367
I1
sS'radaronline.com'
p368
I1
sS'www.yogajournal.com'
p369
I2
sS'www.wallpapergeeks.com'
p370
I1
sS'entomologytoday.org'
p371
I1
sS'www.huffingtonpost.ca'
p372
I7
sS'wikidpr.org'
p373
I7
sS'm.atwonline.com'
p374
I3
sS'www.kickstarter.com'
p375
I1
sS'www.prnewswire.com'
p376
I2
sS'www.indiatimes.com'
p377
I1
sS'www.sandiegomagazine.com'
p378
I1
sS'www.whdh.com'
p379
I1
sS'www.kingofsohodrinks.com'
p380
I1
sS'www.huffingtonpost.co'
p381
I1
sS'www.dutchnews.nl'
p382
I4
sS'izea.com'
p383
I1
sS'www.twentyfoursevenheadlines.com'
p384
I1
sS'www.dallasnews.com'
p385
I1
sS'goto.secret-link.com'
p386
I2
sS'TheReligionOfPeace.co'
p387
I1
sS'www.afrugalfriend.net'
p388
I1
sS'internationalneeds.org.au'
p389
I1
sS'www.myfoxboston.com'
p390
I1
sS'unique-gift-ideas.weebly.com'
p391
I1
sS'www.oregonlive.com'
p392
I24
sS'wellandgood.com'
p393
I1
sS'writtenbypatrickbrown.com'
p394
I1
sS'the-fashionfootwear.com'
p395
I1
sS'www.psychologytoday.com'
p396
I3
sS'dailycoffeenews.com'
p397
I1
sS'www.globalgiving.org'
p398
I4
sS'www.chow.com'
p399
I2
sS'www.n-tv.de'
p400
I1
sS'rguerardbooks.com'
p401
I1
sS'houseofrepresentatives.cmail1.com'
p402
I1
sS'www.snooth.com'
p403
I1
sS'www.business2community.com'
p404
I1
sS'vineyardsaker.blogspot.com.br'
p405
I2
sS'www.rtcc.org'
p406
I3
sS'truth11.com'
p407
I1
sS'zyalt.livejournal.com'
p408
I2
sS'blog.opower.com'
p409
I1
sS'secure3.convio.net'
p410
I1
sS'www.sbs.com.au'
p411
I19
sS'bydeimie.tumblr.com'
p412
I1
sS'www.gettalksupport.com'
p413
I1
sS'lionsclubs.org.au'
p414
I1
sS'www.ky3.com'
p415
I2
sS'www.stuffspec.com'
p416
I2
sS'thetruthspeaker.co'
p417
I2
sS'www.caribjournal.com'
p418
I3
sS'gorillaposition.com'
p419
I1
sS'wtvr.co'
p420
I1
sS'www.dragonplay.com'
p421
I3
sS'www.doctoroz.com'
p422
I1
sS'photographystops.blogspot.co'
p423
I2
sS'www.goodreads.com'
p424
I1
sS'www.flyertalk.com'
p425
I1
sS'www.iafei.org'
p426
I1
sS'www.paleofx.com'
p427
I1
sS'www.independent.ie'
p428
I2
sS'social.newsinc.com'
p429
I1
sS'www.trendingcontentnow.com'
p430
I1
sS'www.avianews.com'
p431
I1
sS'www.mommyenterprises.com'
p432
I2
sS'www.esa.int'
p433
I1
sS'www.kriskoeller.com'
p434
I1
sS'knk0114.lofter.com'
p435
I1
sS'www.arcgis.com'
p436
I1
sS'espressowithpavel.wordpress.com'
p437
I6
sS'www.wfmynews2.com'
p438
I1
sS'lockerbiecase.blogspot.com'
p439
I3
sS'www.militarytravelexchange.com'
p440
I1
sS'rijksoverheidnieuwsnederland.blogspot.com'
p441
I1
sS'feedter.com'
p442
I1
sS'www.schools.com'
p443
I1
sS'www.cnet.com'
p444
I4
sS'photos.dailynews.com'
p445
I2
sS'www1.nyc.gov'
p446
I2
sS'money.cnn.com'
p447
I9
sS'www.confessionsofaparent.com'
p448
I1
sS'cassad-eng.livejournal.com'
p449
I3
sS'losangeles.cbslocal.com'
p450
I1
sS'accounts.google.com'
p451
I1
sS'veganoutreach.org'
p452
I1
sS'taste.fourseasons.com'
p453
I2
sS'www.graphics.com'
p454
I1
sS'www.aparchive.com'
p455
I1
sS'thediaryofanurbanhousewife.blogspot.com'
p456
I2
sS'abundancedancegarden.wordpress.com'
p457
I1
sS'www.tabasco.com'
p458
I1
sS'www.studio66tv.co'
p459
I1
sS'tinybuddha.com'
p460
I1
sS'boldandbelligerent.podbean.com'
p461
I1
sS'loopjamaica.com'
p462
I1
sS'www.thesyrianwar.com'
p463
I1
sS'blog.lacrema.com'
p464
I1
sS'www.envirosagainstwar.org'
p465
I1
sS'www.ammado.com'
p466
I2
sS'chickgazette.com'
p467
I1
sS'surabaya.bisnis.com'
p468
I1
sS'www.uptv.com'
p469
I1
sS'gailterp.com'
p470
I1
sS'www.un.org'
p471
I1
sS'www.uknewse.com'
p472
I1
sS'aroundtheworldinktdays.com'
p473
I1
sS'www.acfid.asn.au'
p474
I1
sS'penandmoon.com'
p475
I1
sS'watson.brown.edu'
p476
I1
sS'www.elysee.fr'
p477
I1
sS'www.aug21st.com'
p478
I1
sS'newmatilda.com'
p479
I1
sS'planetnewsworld.wordpress.com'
p480
I1
sS'www.maplessmike.com'
p481
I1
sS'www.gcreport.com'
p482
I1
sS'www.fromthesquare.org'
p483
I1
sS'blog.chron.com'
p484
I1
sS'gangstersinc.ning.co'
p485
I1
sS'praiseworkshealthandwellness.blogspot.com'
p486
I1
sS'adoptanegotiator.org'
p487
I1
sS'www.youthhealthmag.com'
p488
I2
sS'euromaidanpress.com'
p489
I8
sS'www.reverbnation.co'
p490
I1
sS'www.mercurynews.com'
p491
I1
sS'www.tikkun.org'
p492
I1
sS'jungledrum.hopto.org'
p493
I1
sS'stepitupwithsteph.com'
p494
I1
sS'postmodernnews.com'
p495
I1
sS'www.inetwebsystems.com'
p496
I3
sS'www.bbc.com'
p497
I49
sS'www.nzherald.co.nz'
p498
I7
sS'whattheflicka.com'
p499
I1
sS'www.goodtoknow.co.uk'
p500
I1
sS'www.al.com'
p501
I5
sS'thesaker.is'
p502
I3
sS'gantdaily.com'
p503
I2
sS'www.digitron-blog.net'
p504
I1
sS'www.si.com'
p505
I1
sS'gawker.com'
p506
I5
sS'www.miaminewtimes.com'
p507
I5
sS'more.gthankyou.com'
p508
I1
sS'haralddoornbos.wordpress.com'
p509
I1
sS'shuffleupon.com'
p510
I2
sS'bingeaudio.com'
p511
I2
sS'live.huffingtonpost.com'
p512
I1
sS'www.yachtingmonthly.com'
p513
I1
sS'www.planespotters.net'
p514
I1
sS'www.bcf.or.id'
p515
I1
sS'isobelblackthorn.wordpress.com'
p516
I2
sS'www.tastemade.com'
p517
I1
sS'thenextfamily.com'
p518
I1
sS'blog.jordanwinery.com'
p519
I1
sS'www.marcelstraver.nl'
p520
I1
sS'www.mathaba.net'
p521
I1
sS'www.sunherald.com'
p522
I1
sS'link.brightcove.com'
p523
I1
sS'www.earthweek.com'
p524
I1
sS'www.whio.com'
p525
I1
sS'www.guardian.co.tt'
p526
I2
sS'blog.chosun.com'
p527
I2
sS'www.biomazinghcg.com'
p528
I1
sS'drink.bostonchefs.com'
p529
I1
sS'nation.com.pk'
p530
I1
sS'pimdekuijerlezing.n'
p531
I1
sS'www.hashtracking.com'
p532
I1
sS'dc.the-netherlands.org'
p533
I1
sS'searchcollegesports.com'
p534
I1
sS'www.seattlemet.com'
p535
I1
sS'news.asiaone.com'
p536
I12
sS'www.autismspeaks.org'
p537
I2
sS'truthseekerdaily.co'
p538
I1
sS'www.cookingchanneltv.com'
p539
I1
sS'www.footnotesandfinds.com'
p540
I1
sS'www.ksl.com'
p541
I1
sS'german.irib.ir'
p542
I1
sS'www.bikini.com'
p543
I1
sS'girlsglobe.org'
p544
I1
sS'www.vieuws.eu'
p545
I1
sS'www.stuff.co.nz'
p546
I15
sS'djkaas.com'
p547
I1
sS'www.amychendesign.com'
p548
I1
sS'www.koninklijkhuis.nl'
p549
I1
sS'reporter.kro.nl'
p550
I1
sS'www.dawn.com'
p551
I1
sS'america.aljazeera.com'
p552
I6
sS'bytheirstrangefruit.blogspot.com'
p553
I1
sS'teori-sharifah-sofia.blogspot.com'
p554
I1
sS'www.vineyardsaker.co.nz'
p555
I2
sS'issuu.com'
p556
I3
sS'tccnj.org'
p557
I1
sS'mh17.eenvandaag.nl'
p558
I1
sS'abc11.com'
p559
I5
sS'russia-insider.com'
p560
I40
sS'www.liv.asn.au'
p561
I1
sS'tcgcard.blogspot.com'
p562
I1
sS'ukraineatwar.blogspot.fi'
p563
I2
sS'mid.ru'
p564
I1
sS'medium.com'
p565
I5
sS'www.noozami.com'
p566
I1
sS'www.spc.int'
p567
I4
sS'koin.com'
p568
I5
sS'www.tellmeanswer.net'
p569
I7
sS'rt.com'
p570
I156
sS'www.clarionproject.org'
p571
I1
sS'us5.campaign-archive1.com'
p572
I2
sS'www.deschutesbrewery.com'
p573
I1
sS'www.9news.com.au'
p574
I30
sS'www.puisina.com'
p575
I3
sS'www.196flavors.com'
p576
I2
sS'joejoebloggs.blogspot.com'
p577
I1
sS'www.pinterest.com'
p578
I19
sS'www.jokeblogger.com'
p579
I2
sS'nacchopreparedness.org'
p580
I1
sS'www.ciibroadcasting.com'
p581
I1
sS'www.flavorus.com'
p582
I1
sS'www.yourdailyvegan.com'
p583
I1
sS'givealittle.co.nz'
p584
I2
sS'fandagear.ga'
p585
I1
sS'lessonslearned.faa.gov'
p586
I1
sS'SLAVYANGRAD.or'
p587
I1
sS'www.marquesdaniels.com'
p588
I1
sS'militarytechcooperations.wordpress.com'
p589
I2
sS'spotlight.ipsos-na.com'
p590
I1
sS'massispost.com'
p591
I1
sS'xxxPandorasBoxxx.co'
p592
I1
sS'www.kosherinthekitch.com'
p593
I1
sS'www.altheadlines.com'
p594
I1
sS'dannymekic.com'
p595
I1
sS'dfw.cbslocal.com'
p596
I1
sS'play.anghami.com'
p597
I1
sS'westphoria.sunset.com'
p598
I1
sS'santanyc.com'
p599
I1
sS'apheda.org.au'
p600
I1
sS'www.newyorker.com'
p601
I4
sS'secure.avaaz.org'
p602
I4
sS'www.getboldtoday.com'
p603
I1
sS'www.yuengling.com'
p604
I2
sS'fly.historicwings.com'
p605
I1
sS'www.myrtlebeach.com'
p606
I1
sS'www.civildefence.govt.nz'
p607
I1
sS'econews.com.au'
p608
I1
sS'slavyangrad.org'
p609
I6
sS'www.marthastewart.com'
p610
I2
sS'shorelunch.com'
p611
I1
sS'familiesusa.org'
p612
I1
sS'www.dvidshub.net'
p613
I5
sS'paleomovement.com'
p614
I1
sS'www.mister-and-me.com'
p615
I1
sS'www.gov.ph'
p616
I1
sS'xoxoarlene.com'
p617
I2
sS'www.chicagotribune.com'
p618
I7
sS'prettyveggie.com'
p619
I1
sS'healthintelligence.drupalgardens.com'
p620
I2
sS'www.usno.navy.mil'
p621
I1
sS'www.newyorklife.com'
p622
I1
sS'www.artfire.com'
p623
I5
sS'www.kansascity.com'
p624
I1
sS'www.catholicnews.com'
p625
I1
sS'www.sott.net'
p626
I58
sS'www.seriouseats.com'
p627
I4
sS'arynews.tv'
p628
I4
sS'www.relevanza.com'
p629
I1
sS'leehiller.com'
p630
I1
sS'andrewzimmern.com'
p631
I4
sS'www.leatherandlipstickkv.com'
p632
I1
sS'www.newser.com'
p633
I1
sS'www.ilovebeingadad.com'
p634
I1
sS'rucadaveshow.libsyn.com'
p635
I1
sS'www.storyfic.com'
p636
I1
sS'www.greenpeace.org'
p637
I21
sS'www.keithcarsonweather.com'
p638
I1
sS'gueststogarters.com'
p639
I1
sS'www.humber.ca'
p640
I1
sS'www.dailysabah.com'
p641
I2
sS'www.un-spider.org'
p642
I1
sS'one-just-world.blogspot.com'
p643
I2
sS'blog.tsa.gov'
p644
I1
sS'mobile.twitter.com'
p645
I1
sS'events-na10.adobeconnect.com'
p646
I1
sS'cyber-berkut.org'
p647
I2
sS'www.kvue.com'
p648
I1
sS'dcmosquitosquad.com'
p649
I1
sS'UselessDistraction.co'
p650
I1
sS'm.fox19.com'
p651
I1
sS'www.straitstimes.co'
p652
I1
sS'www.incognito.u'
p653
I1
sS'blog.bit9.com'
p654
I1
sS'besmele9.wordpress.com'
p655
I1
sS'herohealthroom.com'
p656
I1
sS'widerimage.reuters.com'
p657
I1
sS'dynamic.pdc.org'
p658
I1
sS'www.nfpa.org'
p659
I1
sS'stoprisk.page.tl'
p660
I1
sS'news.biharprabha.com'
p661
I1
sS'www.chicagofestivals.org'
p662
I2
sS'www.metro.us'
p663
I1
sS'www.tagesspiegel.de'
p664
I1
sS'rense.com'
p665
I1
sS'rbth.co.uk'
p666
I2
sS'gabbyquinteros.com'
p667
I1
sS'www.rich.co.ke'
p668
I2
sS'cabingoddess.com'
p669
I1
sS'www.redcross.org.uk'
p670
I1
sS'www.supergossip.net'
p671
I4
sS'ac360.blogs.cnn.com'
p672
I3
sS'www.safebee.com'
p673
I1
sS'www.iqboom.com'
p674
I15
sS'www.weightwatchers.com'
p675
I1
sS'metronews.ca'
p676
I1
sS'www.westindiesforum.com'
p677
I1
sS'www.the-rheumatologist.org'
p678
I2
sS'www.dca.gov.my'
p679
I1
sS'reliefweb.int'
p680
I30
sS'www.robinleehatcher.com'
p681
I2
sS'maintenance.unicef.org.u'
p682
I1
sS'www.bustle.com'
p683
I3
sS'www.flightglobal.com'
p684
I17
sS'www.learningliftoff.com'
p685
I1
sS'www.infignosmedia.com?p=bT923028&CFID=36190305&CFTOKEN=5f909302dbfad36-41D9F07B-9314-9206-0C2990054838B25'
p686
I1
sS'www.ust-global.com'
p687
I1
sS'wnrt.worldnewsradio.today'
p688
I2
sS'consumers.ofcom.org.uk'
p689
I1
sS'iamcaribbean.co'
p690
I1
sS'www.newtrenddiaries.com'
p691
I1
sS'm.bazaardaily.co.uk'
p692
I3
sS'www.nltimes.nl'
p693
I15
sS'www.frecmenta.ro'
p694
I1
sS'www1.macys.com'
p695
I1
sS'www.thepennyhoarder.com'
p696
I1
sS'vineyardsaker.blogspot.com.au'
p697
I1
sS'electronicintifada.net'
p698
I1
sS'm.heraldsun.com.au'
p699
I1
sS'schizoincognito.com'
p700
I1
sS'rickrozoff.wordpress.com'
p701
I1
sS'www.japantimes.co.jp'
p702
I2
sS'shelterboxcanada.org'
p703
I1
sS'www.designwall.com'
p704
I1
sS'www.goforitshow.com'
p705
I1
sS'www.seattlepi.com'
p706
I1
sS'brokenbeautifulbold.com'
p707
I1
sS'nelbie.com'
p708
I1
sS'sixwordmemoirs.com'
p709
I1
sS'www.theantdaily.com'
p710
I1
sS'www.gettyimages.co.uk'
p711
I1
sS'adam1baum.blogspot.com'
p712
I4
sS'news.xinhuanet.com'
p713
I4
sS'www.1millionwomen.com.au'
p714
I1
sS'www.airlineratings.com'
p715
I4
sS'www.doamuslims.org'
p716
I1
sS'8b.kz'
p717
I1
sS'www.hobsonassoc.com'
p718
I1
sS'samanthastevens.wordpress.com'
p719
I1
sS'cottonaustralia.com.au'
p720
I1
sS'fuzmo.com'
p721
I1
sS'www.rtdeutsch.com'
p722
I1
sS'ukraineatwar.blogspot.com.au'
p723
I1
sS'apps.facebook.com'
p724
I12
sS'act.mtv.com'
p725
I2
sS'venitism.blogspot.com'
p726
I1
sS'politicsofpoverty.oxfamamerica.org'
p727
I1
sS'www.metabunk.org'
p728
I3
sS'www.maneyonline.com'
p729
I1
sS'whatsupic.com'
p730
I1
sS'broadwaysbestshows.com'
p731
I2
sS'inforesist.org'
p732
I2
sS'www.materialworldblog.com'
p733
I1
sS'mamanyc.net'
p734
I1
sS'chicago.cbslocal.com'
p735
I2
sS'nuclear-news.net'
p736
I1
sS'www.fdlreporter.com'
p737
I1
sS'khpg.org'
p738
I1
sS'www.firstpost.com'
p739
I10
sS'pastriespumpsandpi.blogspot.com'
p740
I1
sS'espn.go.com'
p741
I1
sS'fortruss.blogspot.ca'
p742
I1
sS'omoooduarere.blogspot.com'
p743
I2
sS'toinformistoinfluence.com'
p744
I1
sS'www.lonelyplanet.com'
p745
I2
sS'linkaloo.blogspot.de'
p746
I13
sS'www.i4u.com'
p747
I2
sS'www.gratitude-game.co'
p748
I1
sS'www.umhoops.com'
p749
I1
sS'www.dailymail.co.uk'
p750
I51
sS'bobbyflay.com'
p751
I1
sS'dixieswanson.com'
p752
I1
sS'kisshergoodbye.authorsxpress.co'
p753
I1
sS'news.24hoursapp.com'
p754
I1
sS'www.scoop.it'
p755
I6
sS'digjamaica.com'
p756
I1
sS'www.weeatreal.com'
p757
I5
sS'disaster.trendolizer.com'
p758
I1
sS'coolmomscooltips.com'
p759
I1
sS'blogs.webmd.com'
p760
I1
sS'news.yahoo.com'
p761
I32
sS'www.glamourmagazine.co.uk'
p762
I1
sS'becomingthejourney.com'
p763
I1
sS'care.ca'
p764
I1
sS'www.ixtentia.com'
p765
I1
sS'm.thenation.com'
p766
I1
sS'onlinelibrary.wiley.com'
p767
I4
sS'roymalashev.wix.com'
p768
I1
sS'BingeAudio.co'
p769
I1
sS'storify.com'
p770
I10
sS'www.sixsistersstuff.com'
p771
I1
sS'www.fws.gov'
p772
I1
sS'www.finalcall.com'
p773
I1
sS'veganstreet.com'
p774
I1
sS'www.wsvn.com'
p775
I2
sS'whatreallyhappened.com'
p776
I3
sS'www.regnum.ru'
p777
I1
sS'fakemalaysianews.com'
p778
I1
sS'in.sputniknews.com'
p779
I1
sS'www.findonweb.net'
p780
I1
sS'blog.travelchannel.com'
p781
I1
sS'www.portagelife.com'
p782
I1
sS'www.nbcphiladelphia.com'
p783
I1
sS'www.legitgov.org'
p784
I1
sS'buzcast.com'
p785
I4
sS'foxct.com'
p786
I1
sS'www.correctiv.org'
p787
I1
sS'have-need-want.com'
p788
I1
sS'weusegadgets.tumblr.com'
p789
I2
sS'keegan.nyc'
p790
I2
sS'www.marvitafranklin.com'
p791
I1
sS'healthbistro.lifescript.com'
p792
I1
sS'www.coosto.com'
p793
I2
sS'www.thrillist.com'
p794
I1
sS'www.amazinghousedesign.com'
p795
I1
sS'emerils.com'
p796
I2
sS'www.freitag.de'
p797
I1
sS'www.abplive.in'
p798
I2
sS'www.3news.co.nz'
p799
I4
sS'I.instgram.com'
p800
I1
sS'www.flightradar24.com'
p801
I5
sS'www.meteoearth.com'
p802
I3
sS'www.surfermag.com'
p803
I1
sS'www.ad.nl'
p804
I6
sS'www.mcgi.org'
p805
I1
sS'eiram.org'
p806
I1
sS'www.amazon.ca'
p807
I10
sS'fahlo.me'
p808
I3
sS'www.frontrowmama.com'
p809
I1
sS'uatoday.tv'
p810
I31
sS'www.amazon.co'
p811
I1
sS'WeedBinge.co'
p812
I1
sS'ohl.rainn.org'
p813
I1
sS'HalloweenBinge.co'
p814
I1
sS'www.30secondmom.com'
p815
I2
sS'reallyawfulmovies.com'
p816
I1
sS'www.johnsoncitypress.com'
p817
I1
sS'www.worldeconomics.com'
p818
I1
sS'home.trainingpeaks.com'
p819
I1
sS'ChristmasBinge.co'
p820
I1
sS'www.my-photo-school.com'
p821
I1
sS'9gag.com'
p822
I1
sS'act.couragecampaign.org'
p823
I1
sS'sway.com'
p824
I1
sS'www.breaking911.com'
p825
I9
sS'www.mortaljourney.com'
p826
I1
sS'www.beachbody.com'
p827
I1
sS'www.beaches.com'
p828
I1
sS'www.9jumpin.com.au'
p829
I1
sS'www.missinformationblog.com'
p830
I1
sS'www.counterpunch.org'
p831
I13
sS'www.zibbet.com'
p832
I1
sS'www.pri.org'
p833
I1
sS'holykaw.alltop.com'
p834
I1
sS'livhomeblog.com'
p835
I1
sS'www.socionomics.net'
p836
I1
sS'www.irishexaminer.com'
p837
I3
sS'm.jpnn.com'
p838
I1
sS'www.crowdrise.com'
p839
I1
sS'www.herald-dispatch.com'
p840
I1
sS'gotham-magazine.com'
p841
I1
sS'www.directorjewels.com'
p842
I1
sS'www.chat2hookup.com'
p843
I1
sS'www.ksdk.com'
p844
I1
sS'www.sundance.org'
p845
I1
sS'defamer.gawker.com'
p846
I2
sS'arlingtontexastoday.com'
p847
I1
sS'cloud-1410802539-cache.cdn-max.com'
p848
I1
sS'laht.com'
p849
I1
sS'www.washingtonpost.com'
p850
I38
sS'www.globalindonesianvoices.com'
p851
I2
sS'www.agrifeeds.org'
p852
I2
sS'dvogelsang.blogspot.com'
p853
I1
sS'fortruss.blogspot.com.au'
p854
I2
sS'www.ny1.com'
p855
I2
sS'www.abovetopsecret.com'
p856
I1
sS'www.geographical.co.uk'
p857
I1
sS'www.stewartslaw.com'
p858
I1
sS'christinenegroni.blogspot.com'
p859
I1
sS'www.grandbaby-cakes.com'
p860
I1
sS'www.healthyorganicdogbiscuits.com'
p861
I1
sS'www.heritage.org'
p862
I1
sS'www.canadianhealthcarenetwork.ca'
p863
I1
sS'www.casadecrews.com'
p864
I1
sS'www.i24news.tv'
p865
I2
sS'www.independent.co.uk'
p866
I43
sS'getreadyforflu.org'
p867
I1
sS'sports.bovada.lv'
p868
I1
sS'celebratewomantoday.com'
p869
I2
sS'www.storyleak.com'
p870
I1
sS'www.nbc.com'
p871
I1
sS'www.wonderwall.com'
p872
I1
sS'mapsengine.google.com'
p873
I1
sS'yahoonewsdigest-gb.tumblr.com'
p874
I1
sS'redstatements.co'
p875
I1
sS'www.projecthope.org'
p876
I1
sS'willyloman.wordpress.com'
p877
I1
sS'www.solidarites.org'
p878
I2
sS'www.americares.org'
p879
I3
sS'www.activistpost.com'
p880
I4
sS'southernlawyernc.blogspot.com'
p881
I1
sS'www.google.co.uk'
p882
I1
sS'patdollard.com'
p883
I2
sS'threepercenternation.com'
p884
I1
sS'www.episcopalrelief.org'
p885
I1
sS'www.inmycommunity.com.au'
p886
I1
sS'bookreviews.infoversant.com'
p887
I1
sS'www.teledynemarinesystems.com'
p888
I2
sS'www.newyork.com'
p889
I1
sS'play.google.com'
p890
I2
sS'www.apparelnbags.com'
p891
I1
sS'wgntv.com'
p892
I1
sS'www.jodiegasson.com'
p893
I1
sS'article.wn.com'
p894
I5
sS'bostoncae.augusoft.net'
p895
I1
sS'www.barefoothippiegirl.com'
p896
I1
sS'www.thehealthymoms.net'
p897
I3
sS'commons.wikimedia.org'
p898
I2
sS'china.org.cn'
p899
I1
sS'www.365gistplus.com'
p900
I1
sS'www.rachelandmiles.com'
p901
I1
sS'www.upi.com'
p902
I3
sS'english.pravda.ru'
p903
I8
sS'm.ndtv.com'
p904
I2
sS'Instagram.com'
p905
I4
sS'www.theinsider.ua'
p906
I1
sS'www.veeflash.com'
p907
I1
sS'www.indiatvnews.com'
p908
I1
sS'www.mrspresson.com'
p909
I1
sS'www.pcapp.inf'
p910
I1
sS'mars.jpl.nasa.gov'
p911
I1
sS'elitedaily.com'
p912
I2
sS'www.microsofttranslator.com'
p913
I4
sS'www.puritan.com'
p914
I1
sS'www.absolutdrinks.com'
p915
I1
sS'www.wsoctv.com'
p916
I3
sS'tasks.hotosm.org'
p917
I3
sS'www.mymcmedia.org'
p918
I1
sS'blog.logmein.com'
p919
I1
sS'www.skynews.com.au'
p920
I4
sS'www.weareteachers.com'
p921
I1
sS'www.ronpaulinstitute.org'
p922
I2
sS'www.nih.gov'
p923
I1
sS'www.arizonafoothillsmagazine.com'
p924
I1
sS'www.panorama.am'
p925
I1
sS'zeeklytv.com'
p926
I2
sS'barbtaub.com'
p927
I1
sS'abouthub.info'
p928
I1
sS'www.fifa.com'
p929
I1
sS'delinksepers.tumblr.com'
p930
I2
sS'www.animalleague.org'
p931
I1
sS'www.jabongworld.com'
p932
I1
sS'voyageofthedarned.blogspot.com'
p933
I1
sS'v2.zopim.com'
p934
I1
sS'sewcraftable.blogspot.com'
p935
I1
sS'becircumspect.blogspot.co.nz'
p936
I4
sS'www.peer1.com'
p937
I1
sS'news.nab.com.au'
p938
I1
sS'www.wavesforwater.org'
p939
I1
sS'www.transportation.gov'
p940
I1
sS'www.homedecoranddesign.com'
p941
I5
sS'www.sheltercluster.org'
p942
I1
sS'www.celebuzz.com'
p943
I3
sS'rafl-fb-tab-app.s3.amazonaws.com'
p944
I1
sS'www.informationclearinghouse.info'
p945
I2
sS'www.abouttimemagazine.co.uk'
p946
I1
sS'donate.unicef.ph'
p947
I1
sS'www.dailyslave.com'
p948
I1
sS'photogrammar.yale.edu'
p949
I1
sS'asmarterplanet.com'
p950
I2
sS'ukraineantifascistsolidarity.wordpress.com'
p951
I1
sS'www.doublewidenetwork.com'
p952
I1
sS'www.vraimagazine.com'
p953
I1
sS'adam-baum.tumblr.com'
p954
I1
sS'www.alternet.org'
p955
I2
sS'gobgr.org'
p956
I1
sS'www.stol.it'
p957
I1
sS'www.australiannationalreview.com'
p958
I1
sS'www.stripes.com'
p959
I3
sS'nymag.com'
p960
I1
sS'www.ohalright.com'
p961
I2
sS'store.sho.com'
p962
I2
sS'dailysciencejournal.com'
p963
I1
sS'www.reshow.it'
p964
I1
sS'www.momjunky.com'
p965
I1
sS'redcross.org.a'
p966
I1
sS'JeffWise.ne'
p967
I1
sS'elbagarcia.com'
p968
I1
sS'bdnews24.com'
p969
I1
sS'web.archive.org'
p970
I2
sS'diplomaticourier.com'
p971
I1
sS'muhc.ca'
p972
I1
sS'www.lemoinefamilykitchen.com'
p973
I1
sS'm.voanews.com'
p974
I1
sS'jasonsplattitudes.blogspot.com'
p975
I1
sS'www.katu.com'
p976
I6
sS'ws-dl.blogspot.com'
p977
I2
sS'www.abbywinters.com'
p978
I1
sS'www.catholicregister.org'
p979
I1
sS'www.childrensmuseum.org'
p980
I1
sS'blog.totalprotect.com'
p981
I1
sS'www.sprottmoney.com'
p982
I1
sS'humanrightsinvestigations.org'
p983
I1
sS'www.skinnygirldaily.co'
p984
I1
sS'www.caritas.org'
p985
I1
sS'totsandme.blogspot.com'
p986
I2
sS'pukeandthegang.com'
p987
I1
sS'www.tonightsgirlfriend.com?nats=seoteam.12.58.80.0.0.0.0.'
p988
I1
sS'www.cookingupcottage.com'
p989
I1
sS'www.motherjones.com'
p990
I3
sS'news.google.pl'
p991
I1
sS'www.cookiesbydesign.com'
p992
I1
sS'foreignpolicy.com'
p993
I1
sS'www.interaksyon.com'
p994
I20
sS'www.ktvz.com'
p995
I1
sS'www.scoreland.com'
p996
I1
sS'theliberal.ie'
p997
I1
sS'RNR-Marine.com'
p998
I11
sS'www.techdirt.com'
p999
I1
sS'www.dailytelegraph.com.au'
p1000
I14
sS'www.kitchenistadiaries.com'
p1001
I1
sS'www.liccng.org'
p1002
I1
sS'12thplanetmerch.co'
p1003
I1
sS'codename-it.livejournal.com'
p1004
I1
sS'www.gossipgawker.com'
p1005
I2
sS'www.power961.com'
p1006
I1
sS'urbanintellectuals.com'
p1007
I1
sS'relate.pw'
p1008
I1
sS'www.seahawks.com'
p1009
I4
sS'warrior.scout.com'
p1010
I1
sS'www.laht.com'
p1011
I6
sS'davidstockmanscontracorner.com'
p1012
I1
sS'www.wncn.com'
p1013
I4
sS'redroseyellowrosecardboardbox.blogspot.com'
p1014
I1
sS'alfestone.tumblr.com'
p1015
I1
sS'tvtropes.org'
p1016
I1
sS'www.gaycalgary.com'
p1017
I3
sS'ceasefiremagazine.co.uk'
p1018
I1
sS'www.shine.com.au'
p1019
I3
sS'info.trepp.com'
p1020
I1
sS'4bitnews.co'
p1021
I1
sS'www.townandcountrymag.com'
p1022
I1
sS'insidebrucrewlife.com'
p1023
I1
sS'www.volkskrant.nl'
p1024
I1
sS'www.barenakedislam.com'
p1025
I1
sS'www.cbn.com'
p1026
I1
sS'www.weather.go'
p1027
I1
sS'news.miurl.org'
p1028
I1
sS'www.tagesschau.de'
p1029
I3
sS'www.neurope.eu'
p1030
I2
sS'orientalreview.org'
p1031
I3
sS'BingePlayer.co'
p1032
I1
sS'animalsindisasters.typepad.com'
p1033
I5
sS'www.warn-usa.com'
p1034
I1
sS'www.GlobalSunTimes.com'
p1035
I3
sS'democracyctr.org'
p1036
I1
sS'start7mei.files.wordpress.com'
p1037
I1
sS'vimeo.com'
p1038
I11
sS'gallys.bigtithitomi.com'
p1039
I1
sS'www.atlanticcouncil.org'
p1040
I3
sS'cbsradionewscast.com'
p1041
I1
sS'esriid.maps.arcgis.com'
p1042
I1
sS'stcroixsource.com'
p1043
I1
sS'flight-mh17.beforeitsnews.com'
p1044
I1
sS'diy.rootsaction.org'
p1045
I1
sS'video.defence.gov.au?mediaId=f2d8106a-d38c-4985-9494-cd4a2594c52'
p1046
I1
sS'whiteapple.ninja'
p1047
I2
sS'www.sgvmosquito.org'
p1048
I1
sS'blog.hellofresh.com'
p1049
I1
sS'www.fctc.org'
p1050
I1
sS'www.kboi2.com'
p1051
I1
sS'news.vice.com'
p1052
I12
sS'www.hollywoodreporter.com'
p1053
I1
sS'www.evelyntidmanauthor.com'
p1054
I1
sS'deepresource.wordpress.com'
p1055
I3
sS'www.emirates247.com'
p1056
I3
sS'www.asia-pacific.undp.org'
p1057
I2
sS'economictimes.indiatimes.com'
p1058
I4
sS'crocesparkwest.com'
p1059
I1
sS'www.houstonpublicmedia.org'
p1060
I2
sS'www.lollydaskal.com'
p1061
I1
sS'www.missoni.com'
p1062
I1
sS'fashionandfrappes.com'
p1063
I1
sS'mommacan.com'
p1064
I1
sS'donate.feedthechildren.org'
p1065
I1
sS'stopimperialism.org'
p1066
I1
sS'www.thetrumpet.com'
p1067
I1
sS'www.daijiworld.com'
p1068
I2
sS'newsroom.unfccc.int'
p1069
I1
sS'www.naacp.org'
p1070
I1
sS'hollywoodlife.com'
p1071
I2
sS'www.simplysated.com'
p1072
I1
sS'www.hcplive.com'
p1073
I1
sS'doctorsimmediatecare.com'
p1074
I1
sS'joemiller.us'
p1075
I1
sS'qz8501.airasia.com'
p1076
I1
sS'www.westernmorningnews.co.uk'
p1077
I1
sS'www.illuminatiofficial.org'
p1078
I1
sS'ronborst.blogspot.com'
p1079
I1
sS'www.webmd.com'
p1080
I1
sS'jimbuchan.com'
p1081
I1
sS'ukraineatwar.blogspot.de'
p1082
I1
sS'blog.ebiquity.com'
p1083
I2
sS'plus.google.com'
p1084
I7
sS'solidarity-now.com'
p1085
I1
sS'www.sosvegetarianlife.com'
p1086
I2
sS'uk.reuters.com'
p1087
I9
sS'smithsonianscience.org'
p1088
I1
sS'www.dailykos.com'
p1089
I1
sS'www.youcaring.com'
p1090
I2
sS'confessionsofanukay-ukayarcheologist.blogspot.com'
p1091
I1
sS'devpolicy.org'
p1092
I1
sS'www.970wfla.com'
p1093
I3
sS'www.hercampus.com'
p1094
I2
sS'eng.mynewshub.cc'
p1095
I9
sS'www.dw.de'
p1096
I6
sS'www.bt.com.bn'
p1097
I2
sS'www.avatrade.com'
p1098
I2
sS'hopenurturedhobbies.com'
p1099
I6
sS'en.amda.or.jp'
p1100
I1
sS'australiansunited.com'
p1101
I1
sS'sploid.gizmodo.com'
p1102
I1
sS'magazine.foxnews.com'
p1103
I1
sS'www.unian.net'
p1104
I1
sS'www.smartup.ph'
p1105
I1
sS'www.worldvision.ca'
p1106
I1
sS'willbord.com'
p1107
I3
sS'www.jess-davies.com'
p1108
I1
sS'www.scientificamerican.com'
p1109
I5
sS'www.mnnonline.org'
p1110
I2
sS'www.miamiherald.com'
p1111
I1
sS'www.gopetplan.com'
p1112
I1
sS'adventurestravelsandfun.blogspot.com'
p1113
I1
sS'www.petmd.com'
p1114
I1
sS'www.aljazeera.net'
p1115
I1
sS'www.unicefusa.org'
p1116
I11
sS'www.treehugger.com'
p1117
I1
sS'unite4humanity.wordpress.com'
p1118
I1
sS'duckduckgo.com'
p1119
I1
sS'wishesndishes.com'
p1120
I2
sS'getsocialwithpatrick.wordpress.com'
p1121
I1
sS'www.hillbillynews.net'
p1122
I1
sS'www.kpbs.org'
p1123
I1
sS'www.popularmechanics.com'
p1124
I1
sS'awritercalledwanda.blogspot.com'
p1125
I1
sS'cbsn.cbsnews.com'
p1126
I1
sS'www.docdroid.net'
p1127
I3
sS'www.whosay.com'
p1128
I4
sS'www.croassociation.org'
p1129
I1
sS'www.cleaneatingveggiegirl.com'
p1130
I3
sS'disastertechlab.org'
p1131
I1
sS'www.hkstrategies.com'
p1132
I1
sS'se.ivyrc.com'
p1133
I1
sS'pmm.nasa.gov'
p1134
I2
sS'www.yachtingmagazine.com'
p1135
I1
sS'yahoonewsdigest-intl.tumblr.com'
p1136
I16
sS'cyberplotters.com'
p1137
I1
sS'www.powned.tv'
p1138
I1
sS'www.joholmes.com'
p1139
I1
sS'airlinenews.asia'
p1140
I2
sS'sjlendman.blogspot.com'
p1141
I2
sS'www.christianaid.org.uk'
p1142
I1
sS'eyreinternational.wordpress.com'
p1143
I1
sS'www.tamaramellon.com'
p1144
I1
sS'www.worldbulletin.ne'
p1145
I1
sS'www.cyber-berkut.org'
p1146
I1
sS'www.hrothstein.com'
p1147
I1
sS'hpherald.com'
p1148
I1
sS'www.lefigaro.fr'
p1149
I1
sS'www.chiminess.com'
p1150
I1
sS'www.fourseasons.com'
p1151
I1
sS'www.newswire.ca'
p1152
I1
sS'www.twitlonger.com'
p1153
I14
sS'mygirlfund.com'
p1154
I1
sS'ConservativeReport.org'
p1155
I2
sS'www.novinky.cz'
p1156
I1
sS'ChikungunyaMOVIE.co'
p1157
I1
sS'eatneat.com'
p1158
I1
sS'rbth.com'
p1159
I1
sS'www.mfs-theothernews.com'
p1160
I4
sS'uk.mobile.reuters.com'
p1161
I2
sS'www.tnp.sg'
p1162
I20
sS'liveuamap.com'
p1163
I10
sS'blog.vidinterest.tv'
p1164
I1
sS'www.rttnews.com'
p1165
I1
sS'imagehost.spark-media.ru'
p1166
I1
sS'gizmodo.com'
p1167
I1
sS'world.news-round.com'
p1168
I1
sS'www.adra.org'
p1169
I1
sS'nasional.news.viva.co.id'
p1170
I4
sS'www.internationalmedicalcorps.org.uk'
p1171
I1
sS'www.lifesambrosia.com'
p1172
I1
sS'www.wpro.who.int'
p1173
I2
sS'news.abnxcess.com'
p1174
I1
sS'www.choicehotels.com?adbid=539790545900429314&adbpl=tw&adbpr=16031939&source=social_20141202_3655133'
p1175
I1
sS'www.mercycorps.org'
p1176
I2
sS'uselessdistraction.com'
p1177
I3
sS'video.news.ninemsn.com.au'
p1178
I3
sS'www.aflcio.org'
p1179
I1
sS'itunes.apple.com'
p1180
I8
sS'www.noanimalpoaching.org'
p1181
I1
sS'whatupswags.blogspot.com'
p1182
I1
sS'www.dailyjournal.net'
p1183
I1
sS'www.spiritualresearchfoundation.org'
p1184
I1
sS'liftedtruth.tumblr.com'
p1185
I1
sS'www.newsmanity.com'
p1186
I1
sS'www.newyorkgourmetcoffee.com'
p1187
I1
sS'www.edition.cnn.com'
p1188
I2
sS'unosatgis.cern.ch'
p1189
I1
sS'www.benjerry.com'
p1190
I1
sS'www.gazeta.ru'
p1191
I1
sS'www.mltconsultants.com'
p1192
I1
sS'www.gov.uk'
p1193
I3
sS'jpratt27.wordpress.com'
p1194
I3
sS'www.mindbodygreen.com'
p1195
I1
sS'www.inquisitr.com'
p1196
I17
sS'www.duduradio.co'
p1197
I1
sS'oceantoday.noaa.gov'
p1198
I1
sS'www.japantimes.co'
p1199
I1
sS'www.linkplugapp.com'
p1200
I41
sS'gist.github.com'
p1201
I1
sS'act.350.org'
p1202
I25
sS'www.mobilemarketingwatch.com'
p1203
I1
sS'coachingbusinessinabox.rsscb.com'
p1204
I1
sS'time.com'
p1205
I23
sS'xhgj.mobile.zhongguowangshi.com:8090'
p1206
I1
sS'www.iheart-motherhoodblog.com'
p1207
I1
sS'artowls.com'
p1208
I1
sS'movietickets.warnerbros.com'
p1209
I1
sS'www.themorningbulletin.com.au'
p1210
I1
sS'www.geenstijl.nl'
p1211
I6
sS'www.paho.org'
p1212
I8
sS'www.scillytoday.com'
p1213
I1
sS'www.jimandthem.com'
p1214
I1
sS'www.shareasale.com'
p1215
I16
sS'www.mtv.co.uk'
p1216
I1
sS'www.voltairenet.org'
p1217
I6
sS'PunkSkateClub.co'
p1218
I1
sS'oregon.24-7newz.com'
p1219
I1
sS'www.crowdmapped.com'
p1220
I1
sS'www.bigcorkvineyards.com'
p1221
I1
sS'www.cair.com'
p1222
I1
sS'humansarefree.com'
p1223
I2
sS'blogs.wsj.com'
p1224
I8
sS'www.bls.gov'
p1225
I1
sS'stanvanhoucke.blogspot.com'
p1226
I1
sS'abc7.com'
p1227
I1
sS'www.realsimple.com'
p1228
I1
sS'michellephan.com'
p1229
I1
sS'www.cafepress.com'
p1230
I8
sS'www.euractiv.com'
p1231
I1
sS'nypost.com'
p1232
I7
sS'urbana.org'
p1233
I1
sS'blog.honest.com'
p1234
I1
sS'misc.newyorklife.com'
p1235
I1
sS'www.godsgrowinggarden.com'
p1236
I2
sS'www.fox.com.au'
p1237
I1
sS'ukraineatwar.blogspot.nl'
p1238
I8
sS'losangeles.cityandpress.com'
p1239
I1
sS'www.cms.gov'
p1240
I1
sS'salsa3.salsalabs.com'
p1241
I1
sS'kellystilwell.com'
p1242
I1
sS'RT.co'
p1243
I2
sS'www.adventuresincoupons.com'
p1244
I1
sS'fllwrs.co'
p1245
I1
sS'm.ewn.co.za'
p1246
I1
sS'www.islam21c.com'
p1247
I1
sS'www.cosmopolitan.co.uk'
p1248
I3
sS'FUNDINGMEXICO.COM'
p1249
I1
sS'www.trunews.com'
p1250
I1
sS'numerologyhq.net'
p1251
I1
sS'uaset.co'
p1252
I1
sS'translate.google.com'
p1253
I24
sS'famagusta-gazette.com'
p1254
I12
sS'www.sportingnews.com'
p1255
I1
sS'fortruss.blogspot.ae'
p1256
I1
sS'onbetterliving.com'
p1257
I4
sS'indianexpress.com'
p1258
I4
sS'ahollywoodflashback.blogspot.com'
p1259
I1
sS'ukraineatwar.blogspot.com.tr'
p1260
I1
sS'www.newsday.com'
p1261
I3
sS'www.wfp.org'
p1262
I7
sS'earthobservatory.nasa.gov'
p1263
I1
sS'so-stadium-status.com'
p1264
I6
sS'www.military-today.com'
p1265
I1
sS'www.thespoof.com'
p1266
I1
sS'realterryoradio.wix.com'
p1267
I1
sS'us5.campaign-archive2.com'
p1268
I2
sS'classicallytrained.net'
p1269
I1
sS'princessofthelight.wordpress.com'
p1270
I1
sS'truth-out.org'
p1271
I3
sS'www.insiderdaily.info'
p1272
I1
sS'www.channel4.com'
p1273
I2
sS'linkis.com'
p1274
I86
sS'www.coghlincompanies.com'
p1275
I1
sS'shoebat.com'
p1276
I1
sS'www.hollywoodtake.com'
p1277
I1
sS'www.joomlart.com'
p1278
I10
sS'xin.msn.com'
p1279
I5
sS'novorossia.today'
p1280
I2
sS'russ-history.blogspot.ru'
p1281
I2
sS'rusvesna.su'
p1282
I1
sS'undergroundmedic.com'
p1283
I1
sS'www.DoctorAdvice4u.co'
p1284
I2
sS'www.experiencejubilee.org'
p1285
I1
sS'www.redstar.gr'
p1286
I1
sS'www.actalliance.org'
p1287
I1
sS'www.entertainingiseasy.com'
p1288
I1
sS'www.wort.lu'
p1289
I1
sS'christmasbinge.com'
p1290
I10
sS'www.savingsaidsimply.com'
p1291
I1
sS'www.produceforkids.com'
p1292
I1
sS'www.arabnews.com'
p1293
I2
sS'www.arrownj.com'
p1294
I1
sS'mortalglobe.com'
p1295
I1
sS'www.banfield.com'
p1296
I1
sS'runninginaskirt.com'
p1297
I1
sS'oneworld.org'
p1298
I1
sS'www.reddit.com'
p1299
I2
sS'omoooduarere.blogspot.cz'
p1300
I1
sS'www.ticotimes.net'
p1301
I3
sS'www.dagmarbleasdale.com'
p1302
I1
sS'amp.twimg.com'
p1303
I15
sS'empeopled.com'
p1304
I1
sS'stofftree.com'
p1305
I4
sS'www.thenewscommenter.com'
p1306
I1
sS'americasdonewrongs.blogspot.com'
p1307
I5
sS'sports.yahoo.com'
p1308
I1
sS'visitor.r20.constantcontact.com'
p1309
I1
sS'www.pravda.r'
p1310
I1
sS'globalgrind.com'
p1311
I1
sS'www.worldvision.org'
p1312
I1
sS'english.cri.cn'
p1313
I2
sS'vacationlate.com'
p1314
I1
sS'www.shoppingadviser.in'
p1315
I1
sS'www.thebump.com'
p1316
I1
sS'www.wunderground.com'
p1317
I2
sS'www.penguin.com'
p1318
I1
sS'www.biblegateway.com'
p1319
I1
sS'news.detik.com'
p1320
I11
sS'www.ifalpa.org'
p1321
I1
sS'www.lutheranworld.org'
p1322
I1
sS'crisis20.net'
p1323
I1
sS'www.kraftrecipes.com'
p1324
I2
sS'www.browardpalmbeach.com'
p1325
I1
sS'apnews.myway.com'
p1326
I1
sS'm.fbi.gov'
p1327
I1
sS'theboot.com'
p1328
I2
sS'www.alipac.us'
p1329
I1
sS'www.occupywallst.nyc'
p1330
I1
sS'genesis-foundation.ne'
p1331
I1
sS'www.aroadlesstaken.org'
p1332
I1
sS'www.stylemepretty.com'
p1333
I1
sS'www.cityofdavidng.org'
p1334
I2
sS'bernews.com'
p1335
I1
sS'CaptainMarketing.co'
p1336
I1
sS'www.infobarrel.com'
p1337
I2
sS'www.breakingnewspak.com'
p1338
I1
sS'donatecartocharityvalue.blogspot.com'
p1339
I1
sS'AnExtraordinaryDay.ne'
p1340
I1
sS'www.tompainetoday.com'
p1341
I2
sS'report24.co.uk'
p1342
I1
sS'act.climaterelief.org'
p1343
I1
sS'ChikUnGunYa.Toda'
p1344
I1
sS'Walmart.co'
p1345
I1
sS'www.bbcamerica.com'
p1346
I1
sS'www.suara.com'
p1347
I1
sS'www.dodbuzz.com'
p1348
I1
sS'insidescoopsf.sfgate.com'
p1349
I1
sS'www.rescue.org'
p1350
I2
sS'www.jasonbladd.com'
p1351
I1
sS'www.startribune.com'
p1352
I1
sS'audioboom.com'
p1353
I2
sS'www.caribbeanlifenews.com'
p1354
I1
sS'www.kohls.com'
p1355
I3
sS'www.thepeoplesvoice.org'
p1356
I1
sS'www.actionaid.org'
p1357
I1
sS'www.ideasintoart.net'
p1358
I1
sS'www.adgooroo.com'
p1359
I1
sS'scottlocklin.wordpress.com'
p1360
I1
sS'www.thesun.co.uk'
p1361
I2
sS'www.gomommacoupons.com'
p1362
I1
sS'news.health.com'
p1363
I2
sS'www.thestar.com'
p1364
I2
sS'www.mondialisation.ca'
p1365
I1
sS'www.cbsnews.com'
p1366
I19
sS'bobstruth.blogspot.com.au'
p1367
I1
sS'blog.foodbankcenc.org'
p1368
I2
sS'us1.campaign-archive2.com'
p1369
I1
sS'goneklippinkrazy.com'
p1370
I1
sS'moroccaninsaudi.wordpress.com'
p1371
I1
sS'theglutensummit.co'
p1372
I1
sS'energy.gov'
p1373
I1
sS'd1dwvcwq657ipv.cloudfront.net'
p1374
I3
sS't.co'
p1375
I1
sS'www.focus-fen.net'
p1376
I1
sS'www.melodypetite.com'
p1377
I1
sS'the-leadership-academy.co'
p1378
I1
sS'www.janes.com'
p1379
I3
sS'www.wjla.com'
p1380
I1
sS'www.brisbanetimes.com.au'
p1381
I3
sS'www.v-gar.co'
p1382
I1
sS'swf.tubechop.com'
p1383
I1
sS'jeffwise.net'
p1384
I3
sS'www.theyellowcapecod.com'
p1385
I1
sS'www.thegreekglutton.com'
p1386
I1
sS'www.telesurtv.net'
p1387
I4
sS'www.ktuu.com'
p1388
I1
sS'current.ly'
p1389
I3
sS'www.financialexpress.com'
p1390
I2
sS'fan.cx'
p1391
I1
sS'niume.com'
p1392
I1
sS'cynthiaroemer.weebly.co'
p1393
I1
sS'www.salon.com'
p1394
I3
sS'warmjello.com'
p1395
I1
sS'www.ilovethebookofmormon.org'
p1396
I1
sS'climatenexus.org'
p1397
I1
sS'oregon.4h.oregonstate.edu'
p1398
I1
sS'us.cnn.com'
p1399
I2
sS'www.workwithbenpowell.com'
p1400
I1
sS'www.wesleymission.org.au'
p1401
I1
sS'www.caribentertainment.net'
p1402
I2
sS'christine-ardigo-author.com'
p1403
I1
sS'www.keelinggallery.co'
p1404
I1
sS'ow.ly'
p1405
I37
sS'gallys.40somethingmag.com'
p1406
I2
sS'compassionservicesinternational.cloverdonations.com'
p1407
I2
sS'www.ainonline.com'
p1408
I3
sS'zoek.officielebekendmakingen.nl'
p1409
I1
sS'sa.uploads.ru'
p1410
I2
sS'www.whitecastle.com'
p1411
I1
sS'www.esri.com'
p1412
I1
sS'burkonews.info'
p1413
I3
sS'handicapthis.com'
p1414
I1
sS'www.unitingworld.org.au'
p1415
I2
sS'braingarbagedystopie.blogspot.com'
p1416
I1
sS'thatwillplaypod.com'
p1417
I1
sS'photo.oxyapps.net'
p1418
I4
sS'www.cbc.ca'
p1419
I20
sS'www.csmonitor.com'
p1420
I11
sS'cilisos.my'
p1421
I2
sS'guides.wonobo.com'
p1422
I1
sS'notacurry.com'
p1423
I1
sS'www.onbeing.org'
p1424
I1
sS'world.einnews.com'
p1425
I1
sS'www.netmining.com'
p1426
I1
sS'www.fairobserver.com'
p1427
I1
sS'www.nyc.gov'
p1428
I1
sS'alphanow.thomsonreuters.com'
p1429
I1
sS'hosted.ap.org'
p1430
I1
sS'blog.spylight.com'
p1431
I1
sS'slowtravelguidebook.com'
p1432
I1
sS'www.celeblovers.com'
p1433
I1
sS'roseandwomble.com'
p1434
I1
sS'falkentire.com'
p1435
I1
sS'www.unbound.org'
p1436
I1
sS'well.blogs.nytimes.com'
p1437
I2
sS'assets.feedblitz.com'
p1438
I1
sS'bleacherreport.com'
p1439
I2
sS'nosint.blogspot.fi'
p1440
I1
sS'kronista.co'
p1441
I1
sS'www.parenttoolkit.com'
p1442
I1
sS'www.thesmokinggun.com'
p1443
I1
sS'www.faithfreedom.org'
p1444
I1
sS'www.derekpillie.com'
p1445
I1
sS'blogs.abc.net.au'
p1446
I1
sS'm.facebook.com'
p1447
I8
sS'vegetariansnob.com'
p1448
I1
sS'www.wattpad.com'
p1449
I1
sS'vine.co'
p1450
I76
sS'muftah.org'
p1451
I1
sS'realgirlskitchen.co'
p1452
I1
sS'steller.co'
p1453
I1
sS'www.yenewyorkpost.com'
p1454
I6
sS'tyleroakley.com'
p1455
I1
sS'au.ibtimes.com'
p1456
I6
sS'theweek.com'
p1457
I1
sS'www.instagramvegan.com'
p1458
I5
sS'notalotofpeopleknowthat.wordpress.com'
p1459
I1
sS'compassionservices.wordpress.com'
p1460
I1
sS'allrecipes.com'
p1461
I1
sS'daysofadomesticdad.com'
p1462
I1
sS'apatheticatheist.blogspot.ca'
p1463
I1
sS'www.thefridaytimes.com'
p1464
I1
sS'sherriequestioningall.blogspot.de'
p1465
I1
sS'www.accuweather.com'
p1466
I7
sS'www.komonews.com'
p1467
I1
sS'fireofliberty.com'
p1468
I1
sS'themadjewess.net'
p1469
I1
sS'osce.usmission.gov'
p1470
I1
sS'blog.engagespark.com'
p1471
I1
sS'www.dailyrecord.co.uk'
p1472
I1
sS'says.com'
p1473
I5
sS'theobamacrat.com'
p1474
I1
sS'www.ihsairport360.com'
p1475
I1
sS'en.wikipedia.org'
p1476
I9
sS'www.vz.ru'
p1477
I2
sS'www.winepairingweekend.com'
p1478
I1
sS'www.theweek.co.uk'
p1479
I1
sS'www.cnsnews.com'
p1480
I2
sS'news.iheart.com'
p1481
I1
sS'm-v-reshetnikov.livejournal.com'
p1482
I4
sS'www.anwarverdict.ml'
p1483
I1
sS'unfoundationblog.org'
p1484
I1
sS'www.wellplated.com'
p1485
I1
sS'www.100resilientcities.org'
p1486
I1
sS'www.christianpost.com'
p1487
I1
sS'trueformlife.com'
p1488
I1
sS'www.lucy-v.com'
p1489
I1
sS'warisacrime.org'
p1490
I1
sS'www.mtv.com'
p1491
I2
sS'www.strategypage.com'
p1492
I1
sS'www.siembravalles.com'
p1493
I1
sS'www.gregoryajohnson.com'
p1494
I1
sS'fortruss.blogspot.pt'
p1495
I1
sS'mh17.correctiv.org'
p1496
I10
sS'www.popsugar.com'
p1497
I3
sS'thepapercity.tumblr.com'
p1498
I1
sS'freedomoutpost.com'
p1499
I1
sS'likeavegan.com.au'
p1500
I1
sS'www.niemanlab.org'
p1501
I1
sS'australianaviation.com.au'
p1502
I4
sS'www.catalinacruz.co'
p1503
I1
sS'www.palestinechronicle.com'
p1504
I1
sS'www.amnesty.org'
p1505
I1
sS'theamericanchronicle.blogspot.nl'
p1506
I1
sS'earthquakealert.blogspot.com'
p1507
I1
sS'michaelwyres.com'
p1508
I2
sS'www.globaltimes.cn'
p1509
I1
sS'funkyimg.com'
p1510
I1
sS'www.valetmag.com'
p1511
I1
sS'themacysthanksgivingdayparade.blogspot.com'
p1512
I1
sS'www.gulf-times.com'
p1513
I16
sS'www.businesstimes.com.sg'
p1514
I24
sS'starmagazine.com'
p1515
I1
sS'susandirgham.wordpress.com'
p1516
I1
sS'just2sisters.com'
p1517
I2
sS'novorossiya.today'
p1518
I2
sS'www.unicef.ca'
p1519
I1
sS'www.unocha.org'
p1520
I2
sS'tinyurl.com'
p1521
I4
sS'www.afr.com'
p1522
I2
sS'bulletbluesca.com'
p1523
I1
sS'www.dvdinfatuation.com'
p1524
I2
sS'www.NewsWatchCanada.c'
p1525
I2
sS'www.mb.com.ph'
p1526
I1
sS'adf.dwi-nanto.web.id'
p1527
I2
sS'www.dcclothesline.com'
p1528
I1
sS'ca.tusueldo.com'
p1529
I1
sS'samaritanspurse.ca'
p1530
I1
sS'robinwestenra.blogspot.com'
p1531
I1
sS'www.self.com'
p1532
I12
sS'corecommunique.com'
p1533
I1
sS'www.probonoaustralia.com.au'
p1534
I2
sS'www.oneindia.com'
p1535
I2
sS'www.bild.de'
p1536
I1
sS'www.imra.org.il'
p1537
I1
sS'abcnews.go.co'
p1538
I1
sS'ca.hellomagazine.com'
p1539
I1
sS'www.boomerplaces.com'
p1540
I1
sS'queenlatifah.com'
p1541
I2
sS'www.mydaytondailynews.com'
p1542
I1
sS'chasesfeed.com'
p1543
I2
sS'www.weather.com'
p1544
I11
sS'CyberPlotters.co'
p1545
I1
sS'tribune.com.pk'
p1546
I6
sS'sptimes.ru'
p1547
I1
sS'www.grindtv.com'
p1548
I1
sS'www.healthpromo.doh.gov.ph'
p1549
I1
sS'strk.gnlinks.com'
p1550
I2
sS'www.nexmo.com'
p1551
I1
sS'www.handelsblatt.com'
p1552
I1
sS'www.stopfake.org'
p1553
I3
sS'bellingcat.checkdesk.org'
p1554
I1
sS'PointlessDiversion.co'
p1555
I1
sS'viconsortium.com'
p1556
I1
sS'HipHopBinge.co'
p1557
I1
sS'scotscoop.com'
p1558
I1
sS'www.usnews.com'
p1559
I5
sS'www.forksoverknives.com'
p1560
I1
sS'fortruss.blogspot.fr'
p1561
I1
sS'www.fao.org'
p1562
I2
sS'bingevideo.com'
p1563
I1
sS'i.instagram.com'
p1564
I2
sS'ebola.ninja'
p1565
I1
sS'navalny.com'
p1566
I1
sS'pdf.reuters.com'
p1567
I1
sS'www.theperfectdetails.com'
p1568
I2
sS'www.travelagentcentral.com'
p1569
I1
sS'deadline.com'
p1570
I1
sS'www.axa-im.com'
p1571
I1
sS'www.jamesbeard.org'
p1572
I4
sS'latinamericacurrentevents.com'
p1573
I1
sS'bookmarketingbuzzblog.blogspot.com'
p1574
I1
sS'thriftycook.co.uk'
p1575
I1
sS'takeitorleaveittruth.blogspot.com'
p1576
I2
sS'goodlife.allstate.com'
p1577
I1
sS'blogs.edweek.org'
p1578
I1
sS'comicskingdom.com'
p1579
I1
sS'www.redr.org.au'
p1580
I1
sS'actionforbetterhealthcare.com'
p1581
I1
sS'paparazziaccessories.co'
p1582
I1
sS'uatoday.t'
p1583
I1
sS'www.dailypaul.com'
p1584
I3
sS'www.boycottputinnow.co'
p1585
I1
sS'flashcritic.com'
p1586
I1
sS'deutsche-wirtschafts-nachrichten.de'
p1587
I1
sS'www.scmp.com'
p1588
I9
sS'www.flickr.com'
p1589
I19
sS'www.radioaustralia.net.au'
p1590
I3
sS'www.malaysia-today.net'
p1591
I2
sS'AmericanBinge.co'
p1592
I1
sS'www.crikey.com.au'
p1593
I1
sS'maternity.motherhood.com'
p1594
I1
sS'landdestroyer.blogspot.co.uk'
p1595
I1
sS'www.raischstudios.com'
p1596
I2
sS'www.wsws.org'
p1597
I6
sS'vk.com'
p1598
I4
sS'anh.yoube.vn'
p1599
I3
sS'www.aljazeera.com'
p1600
I12
sS'www.paradigmslip.ca'
p1601
I1
sS'phys.org'
p1602
I4
sS'www.chron.com'
p1603
I4
sS'equalforce.ne'
p1604
I1
sS'4600usd.com'
p1605
I1
sS'm.motherjones.com'
p1606
I1
sS'www.ifaw.org'
p1607
I3
sS'www.hgtv.com'
p1608
I1
sS'animalblog.co.uk'
p1609
I1
sS'www.brooklyneagle.com'
p1610
I1
sS'tags.h12-media.com'
p1611
I1
sS'www.nydailynews.com'
p1612
I8
sS'malaysiatravelnews.com'
p1613
I2
sS'diybinge.com'
p1614
I6
sS'moviewriternyu.wordpress.com'
p1615
I2
sS'assholeoftheday.us'
p1616
I1
sS'uprootedpalestinians.wordpress.com'
p1617
I13
sS'bnonews.com'
p1618
I1
sS'independentaustralia.net'
p1619
I4
sS'www.hulu.com'
p1620
I2
sS'store.line.me'
p1621
I1
sS'www.howdoesshe.com'
p1622
I1
sS'plan-international.org'
p1623
I3
sS'www.jennsblahblahblog.com'
p1624
I2
sS'www.metmuseum.org'
p1625
I3
sS'news.nationalpost.com'
p1626
I3
sS'newsinfo.inquirer.net'
p1627
I18
sS'dlisted.com'
p1628
I1
sS'www.indiegogo.com'
p1629
I5
sS'google.org'
p1630
I1
sS'freecriticalthinking.org'
p1631
I1
sS'digitaledition.philstar.com'
p1632
I6
sS'centrehumanes.wordpress.com'
p1633
I1
sS'tomatoenvy.com'
p1634
I1
sS'www.rodalenews.com'
p1635
I1
sS'mobile.abc.net.au'
p1636
I10
sS'www.oxfam.org'
p1637
I5
sS'savvybookwriters.wordpress.com'
p1638
I1
sS'www.mapsofworld.com'
p1639
I1
sS'ec.europa.eu'
p1640
I3
sS'www.savingcentswithsense.net'
p1641
I8
sS'www.steamboattoday.com'
p1642
I1
sS'littleleopardbook.com'
p1643
I1
sS'www.thesaturdaypaper.com.au'
p1644
I3
sS'www.macroinsider.com'
p1645
I1
sS'www.altrupreneur.com'
p1646
I1
sS'www.trust.org'
p1647
I4
sS'pzfeed.com'
p1648
I1
sS'www.malaysiakini.com'
p1649
I33
sS'www.worldvision.com.au'
p1650
I4
sS'www.thejakartapost.com'
p1651
I11
sS'www.cidrap.umn.edu'
p1652
I7
sS'www.4-traders.com'
p1653
I1
sS'www.icrc.org'
p1654
I2
sS'blog.getkahoot.com'
p1655
I1
sS'www.belfasttelegraph.co.uk'
p1656
I1
sS'www.mnh.si.edu'
p1657
I1
sS'www.arabworld360.info'
p1658
I1
sS'electrodes-h-sinclair-502.com'
p1659
I1
sS'images.verizonwireless.com'
p1660
I1
sS'po.st'
p1661
I6
sS'lmgtfy.com'
p1662
I1
sS'www.newslocker.com'
p1663
I2
sS'lesdeuxgaminsmontreal.com'
p1664
I1
sS'www.wam.ae'
p1665
I2
sS'www.clevermovegames.com'
p1666
I1
sS'rusila.su'
p1667
I2
sS'www.foxcarolina.com'
p1668
I1
sS'www.intracen.org'
p1669
I1
sS'moondustwriter.com'
p1670
I1
sS'www.youtube.com'
p1671
I798
sS'nakedpapis.com'
p1672
I1
sS'solo.bodleian.ox.ac.uk'
p1673
I1
sS'petergreenberg.com'
p1674
I1
sS'www.cheapair.com'
p1675
I1
sS'www.foodie.com'
p1676
I1
sS'www.stressfreekids.com'
p1677
I1
sS'ihorror.com'
p1678
I1
sS'blog.elscintautomation.com'
p1679
I1
sS'www.rockstargames.com'
p1680
I1
sS'www.disasterscharter.org'
p1681
I1
sS'fortruss.blogspot.de'
p1682
I1
sS'www.euronews.com'
p1683
I3
sS'987ampradio.cbslocal.com'
p1684
I1
sS'clatl.com'
p1685
I1
sS'www.creditsesame.com'
p1686
I1
sS'www.tweedekamer.nl'
p1687
I1
sS'www.qgazette.com'
p1688
I1
sS'www.government.nl'
p1689
I4
sS'blog.hootsuite.com'
p1690
I1
sS'data-informed.com'
p1691
I1
sS'urbanext.illinois.edu'
p1692
I1
sS'www.nytimes.com'
p1693
I60
sS'www.thetimes.co.uk'
p1694
I2
sS'therealsingapore.com'
p1695
I1
sS'resepna.blogspot.com'
p1696
I1
sS'blog.whiskeydisks.com'
p1697
I1
sS'climaterevolution.co.uk'
p1698
I1
sS'www.parhlo.com'
p1699
I1
sS'www.airtrafficmanagement.net'
p1700
I2
sS'flutrackers.com'
p1701
I16
sS'www.opentable.com'
p1702
I1
sS'www.blogtalkradio.com'
p1703
I1
sS'www.worldanimalprotection.org'
p1704
I2
sS'us.india.com'
p1705
I1
sS'unhabitat.org'
p1706
I1
sS'www.yewseafood.com'
p1707
I1
sS'www.clickhole.com'
p1708
I1
sS's3.amazonaws.com'
p1709
I2
sS'www.hirschi.se'
p1710
I1
sS'escalatoroverthehill.com'
p1711
I2
sS'wtvr.com'
p1712
I1
sS'www.azcentral.com'
p1713
I5
sS'cityofdavidng.org'
p1714
I3
sS'www.usmagazine.com'
p1715
I1
sS'www.watoday.com.au'
p1716
I5
sS'www.clambakeco.com'
p1717
I1
sS'ramjackpodcast.com'
p1718
I1
sS'madagascar.dreamworks.com'
p1719
I1
sS'www.buoyweather.com'
p1720
I1
sS'www.ifrc.org'
p1721
I5
sS'youvegottotastethis.myrecipes.com'
p1722
I1
sS'www.france24.com'
p1723
I4
sS'www.inheritingourplanet.com'
p1724
I3
sS'mightyturk.wordpress.com'
p1725
I2
sS'ukrainewarlog.blogspot.de'
p1726
I1
sS'mediadiversified.org'
p1727
I1
sS'alphacommedia.com'
p1728
I1
sS'marcgordonshow.com'
p1729
I1
sS'www.samhsa.gov'
p1730
I1
sS'www.judicialwatch.org'
p1731
I1
sS'burningbushwisdoms.wordpress.com'
p1732
I1
sS'www.thesundaytimes.co.uk'
p1733
I4
sS'www.adobe.com'
p1734
I1
sS'www.orvis.com'
p1735
I2
sS'www.greenleft.org.au'
p1736
I2
sS'www.arms-expo.ru'
p1737
I1
sS'en.luxuryscreens.com'
p1738
I1
sS'www.justjared.com'
p1739
I2
sS'today.yougov.com'
p1740
I1
sS'unsensoredactress.x.fc2.com'
p1741
I1
sS'theverb.org'
p1742
I1
sS'deals.ebay.com'
p1743
I1
sS'www.spectator.co.uk'
p1744
I1
sS'jqfkjp.at.ua'
p1745
I1
sS'dlca.logcluster.org'
p1746
I1
sS'counterpsyops.com'
p1747
I4
sS'www.turkiyenewspaper.com'
p1748
I1
sS'offerpop.com'
p1749
I1
sS'www.hindustantimes.com'
p1750
I7
sS'path.com'
p1751
I17
sS'www.kiss925.com'
p1752
I1
sS'www.rtlnieuws.nl'
p1753
I23
sS'foodandnutrition.org'
p1754
I1
sS'mysocialgoodnews.tumblr.com'
p1755
I1
sS'grist.org'
p1756
I1
sS'www.gaystarnews.com'
p1757
I3
sS'baylorlariat.com'
p1758
I1
sS'm.smh.com.au'
p1759
I7
sS'blogs.timesofindia.indiatimes.com'
p1760
I1
sS'www.elizabethturnage.com'
p1761
I1
sS'www.beriev.com'
p1762
I1
sS'blogs.informatica.com'
p1763
I1
sS'www.smnweekly.com'
p1764
I1
sS'stirling.inmycommunity.com.au'
p1765
I1
sS'www.thegwpf.com'
p1766
I1
sS'ymlp.com'
p1767
I1
sS'www.samsung.com'
p1768
I1
sS'unitedstateschat.net'
p1769
I1
sS'www.kval.com'
p1770
I2
sS'www.southernbellaswaystosave.com'
p1771
I1
sS'graphics.thomsonreuters.com'
p1772
I2
sS'www.wikitree.us'
p1773
I4
sS'mom.me'
p1774
I2
sS'www.native-instruments.com'
p1775
I1
sS'www.bangkokpost.com'
p1776
I5
sS'www.gimmesomeoven.com'
p1777
I1
sS'www.msf.org.uk'
p1778
I2
sS'Realgirlskitchen.co'
p1779
I1
sS'www.publicfinanceinternational.org'
p1780
I1
sS'www.elle.com'
p1781
I1
sS'Uinterview.co'
p1782
I1
sS'globalresearch.ca'
p1783
I2
sS'blog.infolinks.com'
p1784
I1
sS'theoldstonewall.blogspot.com'
p1785
I1
sS'globalnation.inquirer.net'
p1786
I2
sS'blogs.kcl.ac.uk'
p1787
I1
sS'www.strategic-culture.org'
p1788
I1
sS'www.robinspost.com'
p1789
I2
sS'followinginmyshoes.com'
p1790
I1
sS'curacaochronicle.com'
p1791
I1
sS'sites.google.com'
p1792
I2
sS'www.shop.co'
p1793
I1
sS'nashvibes.com'
p1794
I2
sS'www.bing.com'
p1795
I1
sS'english.cntv.cn'
p1796
I4
sS'simplemisfit.com'
p1797
I1
sS'www.dreamshomedecor.com'
p1798
I1
sS'www.lynboyer.net'
p1799
I1
sS'www.bsp.com.pg'
p1800
I1
sS'bingepod.com'
p1801
I1
sS'www.aha.org'
p1802
I1
sS'www.awin1.com'
p1803
I1
sS'audioMIR.inf'
p1804
I1
sS'www.democratandchronicle.com'
p1805
I1
sS'ShareEbolaNews.co'
p1806
I2
sS'www.redneckrealitycheck.com'
p1807
I1
sS'www.texaschildrensblog.org'
p1808
I1
sS'www.coworker.org'
p1809
I1
sS'ideas.ted.com'
p1810
I1
sS'm.wsvn.com'
p1811
I2
sS'acloserlookonsyria.shoutwiki.com'
p1812
I1
sS'onetoday.google.com'
p1813
I1
sS'badbluetech.bitnamiapp.com'
p1814
I2
sS'rockstarbadboy.com'
p1815
I1
sS'tastyfoodsnacks.com'
p1816
I4
sS'www.dailyrxnews.com'
p1817
I1
sS'm.apnews.com'
p1818
I7
sS'www.lrb.co.uk'
p1819
I1
sS'islandeditions.wordpress.com'
p1820
I2
sS'la-story.com'
p1821
I1
sS'whitney.org'
p1822
I1
sS'www.newrepublic.com'
p1823
I4
sS'fusion.net'
p1824
I2
sS'yoyodyne.files.wordpress.com'
p1825
I1
sS'wikispooks.com'
p1826
I5
sS'www.schar.com'
p1827
I1
sS'www.isasurf.org'
p1828
I1
sS'www.yahoo.com'
p1829
I8
sS'backyardlivingparadise.com'
p1830
I1
sS'persianmama.com'
p1831
I1
sS'wordlink.com'
p1832
I2
sS'asianewsweekly.net'
p1833
I1
sS'bioprepwatch.com'
p1834
I1
sS'www.zillow.com'
p1835
I1
sS'www.pymnts.com'
p1836
I2
sS'www.theblaze.com'
p1837
I3
sS'medicalxpress.com'
p1838
I3
sS'sqor.com'
p1839
I2
sS'www.summerstclaire.com'
p1840
I1
sS'newday.blogs.cnn.com'
p1841
I1
sS'www.getyourfullcourse.com'
p1842
I1
sS'www.scribd.com'
p1843
I1
sS'www.foreignminister.gov.au'
p1844
I1
sS'www.simplehealthykitchen.com'
p1845
I1
sS'www.fairfaxcounty.gov'
p1846
I1
sS'en.eurasianunion.ch'
p1847
I2
sS'about.abc.net.au'
p1848
I1
sS'blog.blavity.com'
p1849
I1
sS'nubry.com'
p1850
I3
sS'www.candymag.com'
p1851
I1
sS'www.oxfam.org.uk'
p1852
I3
sS'www.wrightbusinessit.com'
p1853
I2
sS'journals.plos.org'
p1854
I5
sS'www.bangaloreaviation.com'
p1855
I1
sS'www.vineyardsaker.net'
p1856
I2
sS'www.boredpanda.com'
p1857
I1
sS'newsnetwork.mayoclinic.org'
p1858
I1
sS'de.scribd.com'
p1859
I1
sS'www.maximus.com'
p1860
I1
sS'www.bazaardaily.co.uk'
p1861
I1
sS'mypinterventures.com'
p1862
I1
sS'www.tphnd.org'
p1863
I1
sS'www.wltx.com'
p1864
I2
sS'woola-oops.com'
p1865
I1
sS'GunHoppy.co'
p1866
I1
sS'thenews.pl'
p1867
I1
sS'MovieTrailerBinge.co'
p1868
I1
sS'www.rhinestonewear.org'
p1869
I1
sS'www.surfinglife.com.au'
p1870
I1
sS'www.refinery29.com'
p1871
I1
sS'www.food.com'
p1872
I5
sS'www.heart.co.uk'
p1873
I1
sS'onderzoeksraad.nl'
p1874
I1
sS'nca2014.globalchange.gov'
p1875
I1
sS'atwonline.com'
p1876
I3
sS'open.spotify.com'
p1877
I1
sS'm.virginmoneygiving.com'
p1878
I1
sS'www.gearthblog.com'
p1879
I1
sS'droneblog.com'
p1880
I1
sS'jethead.wordpress.com'
p1881
I1
sS'www.livingalongsidewildlife.com'
p1882
I1
sS'www.justjaredjr.com'
p1883
I1
sS'www.pressenza.com'
p1884
I1
sS'xandernieuws.punt.nl'
p1885
I1
sS'www.bottlenotes.com'
p1886
I1
sS'donate.worldvision.org'
p1887
I1
sS'thevane.gawker.com'
p1888
I1
sS'act.greenpeace.org'
p1889
I6
sS'tipwriter.expertscolumn.com'
p1890
I1
sS'www.gossipcop.com'
p1891
I2
sS'www.internetretailer.com'
p1892
I1
sS'polishpotteryplace.com'
p1893
I1
sS'vineyardsaker.blogspot.nl'
p1894
I2
sS'www.laurenpaints.com'
p1895
I1
sS'zoligirls.co'
p1896
I1
sS'www.workers.org'
p1897
I1
sS'www.handsupunited.org'
p1898
I1
sS'www.tulsapeople.com'
p1899
I1
sS'corrective.or'
p1900
I1
sS'de-formatage.over-blog.com'
p1901
I1
sS'm.greenpeace.org'
p1902
I2
sS'affairstoday.co.uk'
p1903
I1
sS'news.nationalgeographic.com'
p1904
I6
sS'www.chicagonow.com'
p1905
I1
sS'abookgeek.com'
p1906
I1
sS'klimapolitik.com.mx'
p1907
I1
sS'www.errisspeaks.com'
p1908
I1
sS'ohwtf.me'
p1909
I1
sS'bellebrita.com'
p1910
I1
sS'www.news.com.au'
p1911
I35
sS'www.middleeasteye.net'
p1912
I5
sS'www.savethechildren.org.au'
p1913
I2
sS'www.jamieoliver.com'
p1914
I2
sS'www.booooooom.com'
p1915
I1
sS'www.gaiamtv.com'
p1916
I1
sS'www.someecards.com'
p1917
I1
sS'www.worldandbeyond.com'
p1918
I1
sS'www.skymetweather.com'
p1919
I1
sS'gulfnews.com'
p1920
I7
sS'thecitypaperbogota.com'
p1921
I2
sS'salvationist.ca'
p1922
I1
sS'www.fiksu.com'
p1923
I1
sS'www.dailytarheel.com'
p1924
I1
sS'www.mmo-champion.com'
p1925
I1
sS'www.cntraveler.com'
p1926
I1
sS'www.worldvision.org.nz'
p1927
I1
sS'ukrainereferendum.blogspot.com'
p1928
I4
sS'www.eonline.com'
p1929
I2
sS'rotarystories-nzandpacific.blogspot.co.nz'
p1930
I1
sS'domesticvocation.wordpress.com'
p1931
I1
sS'www.aspca.org'
p1932
I1
sS'pressimus.com'
p1933
I1
sS'bitly.com'
p1934
I2
sS'www.courier-journal.com'
p1935
I1
sS'boingboing.net'
p1936
I1
sS'www.stackingcoinssavingmoney.com'
p1937
I2
sS'blog.cambriawines.com'
p1938
I2
sS'inthealth.oxfordjournals.org'
p1939
I1
sS'www.islamic-relief.org'
p1940
I1
sS'www.jma.go.jp'
p1941
I1
sS'www.npr.org'
p1942
I20
sS'www.iss.europa.eu'
p1943
I1
sS'www.opendemocracy.net'
p1944
I1
sS'www.location3.com'
p1945
I1
sS'recipes.howstuffworks.com'
p1946
I1
sS'newzcard.com'
p1947
I1
sS'www.oxfam.ca'
p1948
I3
sS'www.omroepwnl.nl'
p1949
I2
sS'theamericanmama.com'
p1950
I1
sS'www.worldanimalprotection.us.org'
p1951
I1
sS'smallbusiness.com'
p1952
I1
sS'checkorphan.org'
p1953
I1
sS'challengingtherhetoric.wordpress.com'
p1954
I1
sS'www.foxsports.com.au'
p1955
I1
sS'sputniknews.com'
p1956
I104
sS'all-things-andy-gavin.com'
p1957
I2
sS'cdn.viglink.com'
p1958
I2
sS'edition.presstv.ir'
p1959
I1
sS'www.tiffanyleegaston.com'
p1960
I1
sS'www.climatechangedispatch.com'
p1961
I1
sS'www.pch.com'
p1962
I2
sS'eightysixthepoet.blogspot.com'
p1963
I1
sS'thetribemagazine.com'
p1964
I1
sS'cookingwithmanuela.blogspot.com'
p1965
I1
sS'www.ybw.com'
p1966
I1
sS'www.welchs.com'
p1967
I1
sS'ipi.mobi'
p1968
I1
sS'www.eroticmusclevideos.com'
p1969
I1
sS'www.goetzecandy.com'
p1970
I2
sS'www.cleveland.com'
p1971
I2
sS'q13fox.com'
p1972
I4
sS'www.newstalkzb.co.nz'
p1973
I6
sS'blikopnosjournaal.blogspot.nl'
p1974
I3
sS'www.kmbc.com'
p1975
I1
sS'bpr.berkeley.edu'
p1976
I1
sS'www.clickondetroit.com'
p1977
I1
sS'www.rferl.org'
p1978
I13
sS'www.careinternational.org.uk'
p1979
I1
sS'www.ntsb.gov'
p1980
I1
sS'momastery.com'
p1981
I1
sS'chapelboro.com'
p1982
I1
sS'www.adelaidenow.com.au'
p1983
I4
sS'www.techtimes.com'
p1984
I1
sS'www.gospelherald.com'
p1985
I1
sS'www.startjoin.com'
p1986
I1
sS'indiatoday.intoday.in'
p1987
I2
sS'www.infowars.com'
p1988
I16
sS'www.ericjgates.co'
p1989
I1
sS'www.today.com'
p1990
I2
sS'www2.dollargeneral.com'
p1991
I1
sS'bingetube.com'
p1992
I1
sS'www.radio1.nl'
p1993
I1
sS'www.eventbrite.com'
p1994
I1
sS'www.consumeraffairs.com'
p1995
I1
sS'www.snsanalytics.com'
p1996
I2
sS'www.bellinghamherald.com'
p1997
I1
sS'www.anna.aero'
p1998
I1
sS'jama.jamanetwork.com'
p1999
I2
sS'crofsblogs.typepad.com'
p2000
I15
sS'kavvanah.wordpress.com'
p2001
I1
sS'www.ministylediary.com'
p2002
I1
sS'audiomir.info'
p2003
I1
sS'www.eweek.com'
p2004
I1
sS'en.annahar.com'
p2005
I5
sS'VideoGameBinge.co'
p2006
I1
sS'www.tennessean.com'
p2007
I1
sS'photosciencechanel.com'
p2008
I1
sS'ifreepress.com'
p2009
I1
sS'earthdata.nasa.gov'
p2010
I1
sS'americanbinge.com'
p2011
I1
sS'www.antillean.org'
p2012
I2
sS'www.faithfulnews.com'
p2013
I1
sS'tweet-eye.com'
p2014
I1
sS'wella08.wix.com'
p2015
I1
sS'food52.com'
p2016
I1
sS'www.wcvb.com'
p2017
I1
sS'leweb.co'
p2018
I1
sS'save-a-lot.com'
p2019
I1
sS'www.greyenterprisesholdings.co'
p2020
I1
sS'www.latterlymagazine.com'
p2021
I1
sS'www.staance.com'
p2022
I1
sS'dealfuel.com'
p2023
I1
sS'rehmats.wordpress.com'
p2024
I1
sS'www.smh.com.au'
p2025
I56
sS'www.wereld-nieuws.com'
p2026
I1
sS'auburn.247sports.com'
p2027
I1
sS'mostpopulartweets.blogspot.com'
p2028
I1
sS'www.travelchannel.com'
p2029
I2
sS'news.liputan6.com'
p2030
I1
sS'www.canadianmomeh.com'
p2031
I1
sS'www.flap152.com'
p2032
I1
sS'www.daytonlocal.com'
p2033
I1
sS'www.playbuzz.com'
p2034
I1
sS'godwinsalways.blogspot.com'
p2035
I1
sS'sg.news.yahoo.com'
p2036
I73
sS'www.care2.com'
p2037
I1
sS'www.sponsor-now.org'
p2038
I1
sS'reachglobal.blogs.efca.org'
p2039
I1
sS'www.heymanhustle.com'
p2040
I2
sS'willbluejames.blogspot.com'
p2041
I1
sS'www.sun.mv'
p2042
I1
sS'www.mobilecommercedaily.com'
p2043
I2
sS'bill.ccbill.com'
p2044
I1
sS'therightscoop.com'
p2045
I1
sS'americancouncilssee.wordpress.com'
p2046
I1
sS'UselesDiversion.co'
p2047
I1
sS'jamaica-gleaner.com'
p2048
I3
sS'www.bigquestionsonline.com'
p2049
I1
sS're.ssec.wisc.edu:80'
p2050
I1
sS'www.netherlandsmission.org'
p2051
I1
sS'thecripplegate.com'
p2052
I1
sS'easyofficeparty.com'
p2053
I1
sS'albloggedup-investigative.blogspot.com'
p2054
I1
sS'www.preventionweb.net'
p2055
I4
sS'practicallystylish.weebly.com'
p2056
I1
sS'www.businessinsider.com'
p2057
I9
sS'www.indyweek.com'
p2058
I1
sS'www.openculture.com'
p2059
I1
sS'www.aol.com'
p2060
I7
sS'colonelcassad.livejournal.com'
p2061
I2
sS'101thingstodosw.com'
p2062
I1
sS'yournewswire.com'
p2063
I10
sS'www.bunicomic.com'
p2064
I1
sS'us3.campaign-archive2.com'
p2065
I1
sS'www.rumormillnews.com'
p2066
I1
sS'www.nba.com'
p2067
I1
sS'figshare.com'
p2068
I2
sS'www.nicee.co'
p2069
I1
sS'hubpages.com'
p2070
I1
sS'www.aftermidnite.com'
p2071
I1
sS'snip.ly'
p2072
I1
sS'dailysignal.com'
p2073
I1
sS'www.pediastaff.com'
p2074
I1
sS'koningsandra1.wordpress.com'
p2075
I1
sS'www.sgvtribune.com'
p2076
I1
sS'3dotnews.com'
p2077
I2
sS'chefaaronsanchez.com'
p2078
I1
sS'www.mk.ru'
p2079
I1
sS'mels-corner.blogspot.com'
p2080
I1
sS'magnoliadays.com'
p2081
I1
sS'www.chefscatalog.com'
p2082
I2
sS'Chikungunya.Toda'
p2083
I1
sS'www.LabellCuttingBoards.co'
p2084
I1
sS'www.cronkitesports.com'
p2085
I2
sS'www.philstar.com'
p2086
I1
sS'www.mulatpinoy.ph'
p2087
I1
sS'bradblog.com'
p2088
I1
sS'globalnews.ca'
p2089
I13
sS'www.newcelebswear.com'
p2090
I1
sS'www.rosedogbookstore.com'
p2091
I1
sS'www.ilo.org'
p2092
I2
sS'cur.lv'
p2093
I1
sS'www.xn-----flclaefgadgbl2ccdgivqface04a.xn--p1ai'
p2094
I1
sS'www.presstv.ir'
p2095
I13
sS'yahoonewsdigest-us.tumblr.com'
p2096
I3
sS'milfuegos.blogspot.jp'
p2097
I1
sS'fansign.co'
p2098
I1
sS'khpg.or'
p2099
I1
sS'static.samaritanspurse.org.s3.amazonaws.com'
p2100
I1
sS'www.hpc.ncep.noaa.gov'
p2101
I1
sS'm.bbc.com'
p2102
I11
sS'www.lay-out.gr'
p2103
I1
sS'www.quigleyfinewines.com'
p2104
I1
sS'scontent-a.cdninstagram.com'
p2105
I1
sS'rudebate.wordpress.com'
p2106
I1
sS'www.newportmed.com'
p2107
I1
sS'passthesushi.com'
p2108
I2
sS'ktvu-lh.akamaihd.net'
p2109
I1
sS'bigstory.ap.org'
p2110
I15
sS'www.modelinia.com'
p2111
I1
sS'www.give2habitat.org'
p2112
I1
sS'www.lindanieuws.nl'
p2113
I1
sS'www.crazydogtshirts.com'
p2114
I1
sS'exploretraveler.co'
p2115
I1
sS'www.anderweltonline.com'
p2116
I3
sS'www.glutenfreepalate.com'
p2117
I1
sS'www.foodandwine.com'
p2118
I2
sS'www.ssd.noaa.gov'
p2119
I1
sS'blogs.lawyers.com'
p2120
I1
sS'www.justgiving.com'
p2121
I5
sS'www.thewire.com'
p2122
I1
sS'all-that-is-interesting.com'
p2123
I1
sS'www.countercurrents.org'
p2124
I2
sS'translate.google.com.au'
p2125
I1
sS'www.responsivedesignblog.com'
p2126
I1
sS'www.christianheadlines.com'
p2127
I1
sS'venturebeat.com'
p2128
I2
sS'instagram.com'
p2129
I309
sS'bodhita.com'
p2130
I1
sS'www.gofundme.com'
p2131
I9
sS'blogs.scientificamerican.com'
p2132
I1
sS'www.kinkbomb.com'
p2133
I1
sS'www.houseofsparky.com'
p2134
I1
sS'yearinfocus.gettyimages.com'
p2135
I1
sS'news.metrotvnews.com'
p2136
I6
sS'prasiaworldwide.com'
p2137
I1
sS'themommyisland.blogspot.com'
p2138
I1
sS'ilovemydogmorethanmykids.com'
p2139
I1
sS'survivalbackpack.us'
p2140
I1
sS'www.journal.com.ph'
p2141
I1
sS'www.1800flowers.com'
p2142
I1
sS'www.ncbi.nlm.nih.gov'
p2143
I3
sS'www.zazzle.com'
p2144
I8
sS'atticsaltblog.blogspot.com'
p2145
I1
sS'www.chicagopeaceandjustice.org'
p2146
I3
sS'www.wnd.com'
p2147
I1
sS'contentmarketinginstitute.com'
p2148
I1
sS'www.toofab.com'
p2149
I1
sS'honkytonkfit.com'
p2150
I1
sS'www.qponjunkie.com'
p2151
I1
sS'blog.noah.dost.gov.ph'
p2152
I1
sS'www.savethechildren.org.ph'
p2153
I1
sS'purebspodcast.co'
p2154
I1
sS'www.eturbonews.com'
p2155
I1
sS'greatist.com'
p2156
I1
sS'securityaffairs.co'
p2157
I1
sS'www.entrehub.org'
p2158
I1
sS'www.organogold.com'
p2159
I1
sS'www.shephardmedia.com'
p2160
I1
sS'www.idcasereports.com'
p2161
I3
sS'sjlendman.blogspot.co.uk'
p2162
I1
sS'dailycaller.com'
p2163
I1
sS'www.tconfidential.com'
p2164
I1
sS'www.britishmuseum.org'
p2165
I1
sS'www.veteranstoday.com'
p2166
I12
sS'fox4kc.com'
p2167
I2
sS'blog.foodnetwork.com'
p2168
I2
sS'slavsn01.tumblr.com'
p2169
I1
sS'www.professu.com'
p2170
I1
sS'm.theatlantic.com'
p2171
I1
sS'ktla.com'
p2172
I1
sS'www.frugalmaniacsuperdeals.com'
p2173
I1
sS'www.jampact.net'
p2174
I1
sS'diamondxmedia.co'
p2175
I1
sS'fancyshanty.com'
p2176
I2
sS'www.ctvnews.ca'
p2177
I11
sS'pbs.twimg.com'
p2178
I7
sS'Daijiworld.com'
p2179
I1
sS'www.zerofiltered.com'
p2180
I1
sS'thejakartaglobe.beritasatu.com'
p2181
I29
sS'www.stellaandjamie.com'
p2182
I1
sS'www.todayonline.com'
p2183
I87
sS'www.ndtv.com'
p2184
I3
sS'www.sueddeutsche.de'
p2185
I1
sS'www.briandickinson.net'
p2186
I1
sS'm.timesofindia.com'
p2187
I1
sS'www.thanhniennews.com'
p2188
I4
sS'www.andyinthecity.com'
p2189
I1
sS'www.unn.com.ua'
p2190
I1
sS'www.onegreenplanet.org'
p2191
I8
sS'www.watoto.com'
p2192
I1
sS'whatscookingamerica.net'
p2193
I1
sS'www.newsobserver.com'
p2194
I7
sS'livedan330.com'
p2195
I3
sS'blog.cvent.com'
p2196
I1
sS'anglicanhistory.or'
p2197
I1
sS'www.topix.com'
p2198
I1
sS'news.airwise.com'
p2199
I12
sS'www.judyanndavis.blogspot.co'
p2200
I1
sS'tass.ru'
p2201
I57
sS'www.top5stories.com'
p2202
I1
sS'www.anh-usa.org'
p2203
I1
sS'ukrainewarlog.blogspot.com'
p2204
I2
sS'www.rappler.com'
p2205
I56
sS'www.kyivpost.com'
p2206
I36
sS'www.wvi.org'
p2207
I2
sS'blogs.adelaide.edu.au'
p2208
I2
sS'www.thevideoink.com'
p2209
I2
sS'www.offthechartsblog.org'
p2210
I1
sS'www.kdramastars.com'
p2211
I3
sS'www.swarmapp.com'
p2212
I3
sS'www.saddahaq.com'
p2213
I1
sS'peacebuilderscommunity.org'
p2214
I1
sS'flightchic.com'
p2215
I1
sS'navaltoday.com'
p2216
I1
sS'www.theaustralian.com.au'
p2217
I28
sS'www.ibnpercy.com'
p2218
I1
sS'www.latimes.com'
p2219
I20
sS'madworldnews.com'
p2220
I1
sS'www.state.gov'
p2221
I1
sS'www.change.org'
p2222
I4
sS'www.bubblews.com'
p2223
I15
sS'vid.staged.com'
p2224
I1
sS'www.aerotime.aero'
p2225
I1
sS'www.honolulumagazine.com'
p2226
I1
sS'BasketballBinge.co'
p2227
I1
sS'flightaware.com'
p2228
I1
sS'www.fulfillmentdaily.com'
p2229
I1
sS'engageeducateandentertain.blogspot.com'
p2230
I1
sS'ConservativeReport.Org'
p2231
I2
sS'blogs.nasa.gov'
p2232
I3
sS'www.reuters.com'
p2233
I112
sS'www.tate.org.uk'
p2234
I1
sS'www.tempo.co'
p2235
I4
sS'www.lewrockwell.com'
p2236
I4
sS'www.msnbc.com'
p2237
I4
sS'foreignminister.gov.au'
p2238
I2
sS'www.couponingfor4.net'
p2239
I1
sS'www.rijksoverheid.nl'
p2240
I2
sS'www.shelterboxcanada.org'
p2241
I1
sS'ian56.blogspot.ca'
p2242
I1
sS'blogs.oxfam.org'
p2243
I2
sS'www.newindianexpress.com'
p2244
I1
sS'carolynjoycooper.wordpress.com'
p2245
I1
sS'www.apartmenttherapy.com'
p2246
I1
sS'www.health.harvard.edu'
p2247
I1
sS'www.dswd.gov.ph'
p2248
I1
sS'LearningBees.com'
p2249
I1
sS'thewatchers.adorraeli.com'
p2250
I2
sS'www.ediblearrangements.com'
p2251
I1
sS'allanimalrights.org'
p2252
I1
sS'www.lafoodbank.org'
p2253
I1
sS'www.foxsports.com'
p2254
I1
sS'www.lowyinterpreter.org'
p2255
I2
sS'www.seaaustralia.com'
p2256
I1
sS'socialindc.com'
p2257
I1
sS'blogs.palmer.edu'
p2258
I1
sS'www.avoidingbites.com'
p2259
I1
sS'news-round.com'
p2260
I1
sS'www.tenspider-weather.net'
p2261
I1
sS'www.worldvision.org.uk'
p2262
I1
sS'thebricspost.com'
p2263
I1
sS'www.amazon.co.uk'
p2264
I2
sS'shelterbox.org.nz'
p2265
I1
sS'libertas.bz'
p2266
I1
sS'www.appsoko.com'
p2267
I2
sS'climateviewer.com'
p2268
I1
sS'episcopaldigitalnetwork.com'
p2269
I1
sS'fortruss.blogspot.nl'
p2270
I4
sS'video.viva.co.id'
p2271
I4
sS'kandkadventures.com'
p2272
I1
sS'www.secular.org'
p2273
I1
sS'www.zeit.de'
p2274
I2
sS'3blmedia.com'
p2275
I1
sS'www.virusnext.com'
p2276
I2
sS'aviationweek.com'
p2277
I2
sS'in.news.yahoo.com'
p2278
I1
sS'www.duqsm.com'
p2279
I1
sS'www.policeone.com'
p2280
I1
sS'www.huffingtonpost.co.uk'
p2281
I4
sS'defendressofsanity81.wordpress.com'
p2282
I2
sS'm.news24.com'
p2283
I1
sS'musteredlady.com'
p2284
I1
sS'khalilicenter.com'
p2285
I1
sS'www.floridatoday.com'
p2286
I1
sS'www.rferl.mobi'
p2287
I1
sS'www.theedgemarkets.com'
p2288
I1
sS'woundedamericanwarrior.com'
p2289
I1
sS'en.cyplive.com'
p2290
I2
sS'www.google.com'
p2291
I14
sS'www.whitehouse.gov'
p2292
I4
sS'windowoneurasia2.blogspot.com'
p2293
I1
sS'wunc.org'
p2294
I4
sS'www.iracm.com'
p2295
I1
sS'www.khaleejtimes.com'
p2296
I5
sS'www.liveleak.com'
p2297
I19
sS'lunascam.co'
p2298
I1
sS'www.gerryairways.com'
p2299
I6
sS'crazymotts.blogspot.in'
p2300
I2
sS'www.unitedcakedom.com'
p2301
I1
sS'www.mahamosa.com'
p2302
I1
sS'englishnews.thaipbs.or.th'
p2303
I10
sS'en.ua-today.com'
p2304
I1
sS'www.kptv.com'
p2305
I6
sS'www.nowness.com'
p2306
I1
sS'handhaafster.com'
p2307
I1
sS'www.amazon.com'
p2308
I44
sS'www.breitbart.com'
p2309
I2
sS'www.medpagetoday.com'
p2310
I2
sS'www.straitstimes.com'
p2311
I98
sS'recordpub.com'
p2312
I1
sS'sg.finance.yahoo.com'
p2313
I4
sS'en.trend.az'
p2314
I1
sS'www.marineinsight.com'
p2315
I1
sS'un.trendolizer.com'
p2316
I1
sS'www.tilt.com'
p2317
I2
sS'www.juancole.com'
p2318
I1
sS'www.abubaraa.co.uk'
p2319
I1
sS'www.theecologist.org'
p2320
I2
sS'policy-practice.oxfam.org.uk'
p2321
I2
sS'presstv.ir'
p2322
I1
sS'activistrevolution.weebly.com'
p2323
I1
sS'enlightenmentdaily.blogspot.com'
p2324
I1
sS'DIYBinge.co'
p2325
I1
sS'www.itv.com'
p2326
I13
sS'www.intelweb.bi'
p2327
I1
sS'sammy.hk'
p2328
I1
sS'www.asianewsnet.net'
p2329
I2
sS'uselessdiversion.com'
p2330
I1
sS'www.navy.mil'
p2331
I3
sS'outbreaknewstoday.com'
p2332
I25
sS'www.wholefoodsmarket.com'
p2333
I14
sS'www.charley-s.com?nats=MTAxOTcuMi44Ny4yMDAuMjguMC4wLjAuM'
p2334
I1
sS'thebrewbuzz.com'
p2335
I1
sS'www.terencepereira.com'
p2336
I1
sS'worldairlinenews.com'
p2337
I1
sS'sarahwilsondogexpert.com'
p2338
I1
sS'welleatyouupweloveyouso.com'
p2339
I1
sS'sisterssuitcaseblog.com'
p2340
I1
sS'nr.news-republic.com'
p2341
I14
sS'itsautumnslife.com'
p2342
I1
sS'txtufz.ucoz.ua'
p2343
I1
sS'orderoftruth.wordpress.com'
p2344
I1
sS'www.atlantahoopstv.com'
p2345
I1
sS'm.tmi.me'
p2346
I1
sS'emergencies.worldvision.com.au'
p2347
I1
sS'atlanta.schmap.com'
p2348
I2
sS'www.target.com?clkid=U2Nzw9zxYwQ42LBUCrToqTc9UkVRjszX0WYZzY0&lnm=81938&afid=maleahbarrett&ref=tgt_adv_xasd000'
p2349
I1
sS'thinkprogress.org'
p2350
I8
sS'ca.news.yahoo.com'
p2351
I1
sS'philadelphia.cbslocal.com'
p2352
I3
sS'denverfoodguy.blogspot.com'
p2353
I1
sS'www.telegraph.co.uk'
p2354
I31
sS'www.myfoxchicago.com'
p2355
I2
sS'www.ctnow.com'
p2356
I1
sS'nbclearn.com'
p2357
I1
sS'www.citymetric.com'
p2358
I1
sS'www.ubalert.com'
p2359
I1
sS'debunkistan.blogspot.nl'
p2360
I1
sS'm.strategic-culture.org'
p2361
I2
sS'www.laweekly.com'
p2362
I1
sS'www.guadeloupevip.com'
p2363
I1
sS'matterbetter.com'
p2364
I1
sS'hesitantgee.co.vu'
p2365
I1
sS'www.cbs.com'
p2366
I2
sS'www.seemonterey.com'
p2367
I1
sS'mariashriver.com'
p2368
I1
sS'www.kfiam640.com'
p2369
I1
sS'lifeishotblog.wordpress.com'
p2370
I1
sS'www.maxim.com'
p2371
I1
sS'www.jamesray.com'
p2372
I1
sS'www.medicaldaily.com'
p2373
I4
sS'www.senseswines.com'
p2374
I1
sS'www.thefreshquotes.com'
p2375
I1
sS'guardianlv.com'
p2376
I2
sS'www.maxresistance.com'
p2377
I1
sS'carpepoints.com'
p2378
I1
sS'www.transec.com'
p2379
I1
sS'www.grilling24x7.com'
p2380
I1
sS'freerotator.com'
p2381
I2
sS'www.poynter.org'
p2382
I3
sS'blog.metoffice.gov.uk'
p2383
I1
sS'iteachblogging.com'
p2384
I1
sS'villamosconi.com'
p2385
I1
sS'www.wyomingnews.com'
p2386
I1
sS'singapore.coconuts.co'
p2387
I1
sS'carolaround.com'
p2388
I1
sS'www.bea.aero'
p2389
I1
sS'www.pacificainstitute.org'
p2390
I1
sS'www.brainpickings.org'
p2391
I1
sS'terrorincorporated.blogspot.ch'
p2392
I1
sS'www.sportsnewsjunkie.com'
p2393
I1
sS'www.unicef.org.au'
p2394
I9
sS'malaysia-chronicle.com'
p2395
I1
sS'www.democracynow.org'
p2396
I3
sS'lefthandbrewing.com'
p2397
I1
sS'www.metroradio.co.uk'
p2398
I1
sS'www.revereradionetwork.com'
p2399
I1
sS'thegirlnextdoorisblack.com'
p2400
I1
sS'wric.com'
p2401
I3
sS'www.tsu.co'
p2402
I2
sS'www.newcastlejets.com.au'
p2403
I2
sS'camerondouglasms.blogspot.co.nz'
p2404
I1
sS'www.sif.org.sg'
p2405
I1
sS'blog.lxvwine.com'
p2406
I1
sS'uInterview.co'
p2407
I1
sS'www.crackerbarrel.com'
p2408
I1
sS'www.joepandjacqueline.or'
p2409
I1
sS'uviart.blogspot.com'
p2410
I2
sS'search.naver.com'
p2411
I2
sS'lifenews.ru'
p2412
I1
sS'24today.net'
p2413
I3
sS'www.theworldlyblend.com'
p2414
I1
sS'www.texemarrs.com'
p2415
I1
sS'brokehorrorfan.com'
p2416
I1
sS'www.president.gov.ua'
p2417
I2
sS'radicalcitizenmedia.com'
p2418
I1
sS'write2rest.blogspot.com'
p2419
I2
sS'www.newsnation.in'
p2420
I2
sS'cookingchatfood.com'
p2421
I1
sS'talkingpointsmemo.com'
p2422
I2
sS'www.medicalnewstoday.com'
p2423
I3
sS'moonbattery.com'
p2424
I1
sS'www.myfoxla.com'
p2425
I1
sS'fajar.co.id'
p2426
I1
sS'www.thebloggingdoctors.com'
p2427
I1
sS'allnewspipeline.com'
p2428
I1
sS'greenpaperproducts.com'
p2429
I1
sS'english.farsnews.com'
p2430
I1
sS'www.lbcgroup.tv'
p2431
I1
sS'movietrailerbinge.com'
p2432
I1
sS'www.newstalk.com'
p2433
I1
sS'www.oasap.com'
p2434
I3
sS'www.thismamaloves.com'
p2435
I1
sS'www.beachconnection.net'
p2436
I1
sS'momontheside.com'
p2437
I1
sS'johnitoworld.tumblr.com'
p2438
I2
sS'www.spreaker.com'
p2439
I1
sS'www.cjr.org'
p2440
I1
sS'blog.partnersforyourhealth.com'
p2441
I1
sS'www.theguardian.com'
p2442
I97
sS'politicalvelcraft.org'
p2443
I2
sS'readersupportednews.org'
p2444
I1
sS'jacksonville.com'
p2445
I1
sS'emergencies.crs.org'
p2446
I1
sS'www.philadelphianquirer.com'
p2447
I2
sS'www.loveandpainbymistresschloe.com'
p2448
I1
sS'newzealand.usembassy.gov'
p2449
I1
sS'SkatePunkClub.co'
p2450
I1
sS'mfa.gov.il'
p2451
I2
sS'www.mywell-being.com'
p2452
I1
sS'blog.esurance.com'
p2453
I2
sS'www.investing.com'
p2454
I1
sS'www.pushtechnology.com'
p2455
I1
sS'paulsohn.org'
p2456
I1
sS'bookish-ambition.blogspot.co.il'
p2457
I1
sS'www.caribbeanintelligence.com'
p2458
I4
sS'mobile.reuters.com'
p2459
I19
sS'www.mirror.co.uk'
p2460
I13
sS'www.wkbw.com'
p2461
I2
sS'mobile.nytimes.com'
p2462
I3
sS'BingeTube.co'
p2463
I1
sS'natashablackthorneblog.blogspot.com'
p2464
I2
sS'smpauthors.wordpress.com'
p2465
I1
sS'birdflu666.wordpress.com'
p2466
I1
sS'www.realclimate.org'
p2467
I3
sS'www.caribbeannewsnow.com'
p2468
I6
sS'www.thekingsassembly.org'
p2469
I1
sS'www.complex.com'
p2470
I2
sS'globalcrisismanagement.net'
p2471
I1
sS'ipasgiveaway.com'
p2472
I1
sS'GasAndClutch.co'
p2473
I1
sS'www.hitchedmag.com'
p2474
I1
sS'pam-coverup.beforeitsnews.com'
p2475
I1
sS'get.uber.com'
p2476
I1
sS'www.sportstalkflorida.com'
p2477
I1
sS'ciw-online.org'
p2478
I1
sS'cupcakesandkalechips.com'
p2479
I1
sS'ian56.blogspot.com'
p2480
I4
sS'www.people.com'
p2481
I8
sS'www.tear.org.au'
p2482
I1
sS'abc30.com'
p2483
I1
sS'celebrity.yahoo.com'
p2484
I1
sS'www.newscientist.com'
p2485
I2
sS'seattleorganicrestaurants.co'
p2486
I2
sS'lenta.ru'
p2487
I1
sS'mea.gov.in'
p2488
I1
sS'www.reverbnation.com'
p2489
I1
sS'www.ibtimes.co.in'
p2490
I1
sS'www.travelandtourworld.com'
p2491
I1
sS'my.socialtoaster.com'
p2492
I1
sS'www.eurocontrol.int'
p2493
I1
sS'www.peaceislands.org'
p2494
I2
sS'www.pisau.net'
p2495
I1
sS'betterinbulk.net'
p2496
I1
sS'www.eurekalert.org'
p2497
I1
sS'www.opednews.com'
p2498
I15
sS'www.internetusersagainstcancer.com'
p2499
I1
sS'archive.today'
p2500
I1
sS'hype.my'
p2501
I3
sS'gotnews.com'
p2502
I8
sS'www.redcross.org'
p2503
I1
sS'au.news.yahoo.com'
p2504
I15
sS'www.freepeople.com'
p2505
I1
sS'english.astroawani.com'
p2506
I45
sS'www.ridus.ru'
p2507
I2
sS'imjulie.com'
p2508
I1
sS'blog.thenest.com'
p2509
I1
sS'www.telegraaf.nl'
p2510
I8
sS'us4.campaign-archive2.com'
p2511
I1
sS'www.empr.com'
p2512
I1
sS'www.mtw.org'
p2513
I1
sS'secured.greenpeace.org'
p2514
I1
sS'www.ukrinform.ua'
p2515
I1
sS'www.ihsmaritime360.com'
p2516
I1
sS'www.americanphotomag.com'
p2517
I1
sS'www.bellanaija.com'
p2518
I1
sS'consortiumnews.com'
p2519
I7
sS'thenews.mx'
p2520
I1
sS'www.rollhaven.com'
p2521
I1
sS'perezhilton.com'
p2522
I4
sS'www.sciencedaily.com'
p2523
I5
sS'www.blurryme.co'
p2524
I1
sS'fashionunited.com'
p2525
I1
sS'www.commondreams.org'
p2526
I2
sS'travel.gc.ca'
p2527
I4
sS'www.tmz.com'
p2528
I3
sS'loopradio.ne'
p2529
I1
sS'BingeVideo.co'
p2530
I1
sS'vegsource.co'
p2531
I1
sS'www.sunstar.com.ph'
p2532
I1
sS'imgur.com'
p2533
I1
sS'anton-shekhovtsov.blogspot.com.au'
p2534
I1
sS'airasiaqz8501.com'
p2535
I1
sS'www.yogyapost.com'
p2536
I1
sS'circanews.com'
p2537
I4
sS'theboar.org'
p2538
I2
sS'www.globalmajoritynews.com'
p2539
I1
sS'www.5.ua'
p2540
I1
sS'english.alarabiya.net'
p2541
I2
sS'wwno.org'
p2542
I1
sS'www.brooklynbrand.us'
p2543
I2
sS'dimosiografos.wordpress.com'
p2544
I1
sS'appbounty.net'
p2545
I1
sS'www.propublica.org'
p2546
I1
sS'timesofindia.indiatimes.com'
p2547
I5
sS'www.rightnow.io'
p2548
I12
sS'www.reviewjournal.com'
p2549
I3
sS'www.butterballabuse.co'
p2550
I1
sS'www.betweenthekids.com'
p2551
I3
sS'www.ipsnews.net'
p2552
I1
sS'VideoBinge.co'
p2553
I1
sS'vod.tvp.pl'
p2554
I1
sS'svobodaslova.info'
p2555
I1
sS'avia.biz.ua'
p2556
I1
sS'www.thedailystar.net'
p2557
I2
sS'animals.nationalgeographic.com'
p2558
I1
sS'auto.ferrari.com'
p2559
I1
sS'inadreambeyond.blogspot.com'
p2560
I1
sS'successparoxysm.com'
p2561
I1
sS'www.foxnews.com'
p2562
I21
sS'www.surfandsunshine.com'
p2563
I3
sS'trendsmap.com'
p2564
I1
sS'www.mojahedin.com'
p2565
I5
sS'www.homedecoratingguru.com'
p2566
I1
sS'www.coldknowledge.com'
p2567
I1
sS'edibleash.squarespace.com'
p2568
I1
sS'gallys.bigtitvenera.com'
p2569
I1
sS'paoc.org'
p2570
I1
sS'exploretraveler.com'
p2571
I8
sS'jeanllee.blogspot.co'
p2572
I1
sS'www.seroundtable.com'
p2573
I2
sS'malaysiandigest.com'
p2574
I5
sS'www.redcross.ca'
p2575
I6
sS'www.nufc.com'
p2576
I1
sS'blog.compassionuk.org'
p2577
I2
sS'www.wallpapergeeks.co'
p2578
I1
sS'video.cnbc.com'
p2579
I1
sS'www.entertainmentwise.com'
p2580
I1
sS'coa.sagepub.com'
p2581
I1
sS'PointlessDistraction.co'
p2582
I1
sS'www.ebay.com'
p2583
I20
sS'www.arabiangazette.com'
p2584
I2
sS'www.ecommercebytes.com'
p2585
I1
sS'www.newsweek.com'
p2586
I16
sS'www.surlatable.com'
p2587
I1
sS'breakfvst.com'
p2588
I1
sS'uk.sputniknews.com'
p2589
I1
sS'foundationbeyondbelief.org'
p2590
I1
sS'www.oxfamamerica.org'
p2591
I2
sS'collection.whitney.org'
p2592
I1
sS'vineyardsaker.blogspot.com'
p2593
I3
sS'www.belterrapark.com'
p2594
I1
sS'www.charlotteobserver.com'
p2595
I3
sS'HockeyBinge.co'
p2596
I1
sS'www.inma.org'
p2597
I1
sS'echo.msk.ru'
p2598
I1
sS'www.samaritans-purse.org.uk'
p2599
I1
sS'ourshores.org'
p2600
I1
sS'photos.denverpost.com'
p2601
I2
sS'nasional.kompas.com'
p2602
I4
sS'www.latporn.com'
p2603
I1
sS'www.trucking.org'
p2604
I1
sS'frontporchinspired.com'
p2605
I1
sS'suarakolaitaga.blogspot.com'
p2606
I1
sS'minnesota.cbslocal.com'
p2607
I3
sS'www.agprofessional.com'
p2608
I1
sS'www.selfveda.com'
p2609
I3
sS'www.standard.net'
p2610
I1
sS'support.actionaid.org.au'
p2611
I1
sS'www.themalaymailonline.com'
p2612
I50
sS'www.brownwoodnews.com'
p2613
I1
sS'www.nbcdfw.com'
p2614
I2
sS'nickisrandommusings.com'
p2615
I11
sS'ukrainianchi.com'
p2616
I1
sS'en.cihan.com.tr'
p2617
I1
sS'www.internal-displacement.org'
p2618
I1
sS'www.vice.com'
p2619
I1
sS'www.neonnettle.com'
p2620
I5
sS'totalFreqs'
p2621
I17193
sS'pacific.scoop.co.nz'
p2622
I1
sS'www.akturner.com'
p2623
I1
sS'au.tv.yahoo.com'
p2624
I1
sS'www.surgicalbusinessmodelinnovation.com'
p2625
I1
sS'www.freemalaysiatoday.com'
p2626
I24
sS'woobox.com'
p2627
I1
sS'i.imgur.com'
p2628
I1
sS'm.thestar.com'
p2629
I2
sS'ShandaFay.co'
p2630
I1
sS'www.og.nr'
p2631
I1
sS'www.diynetwork.com'
p2632
I1
sS'www.thesundaily.my'
p2633
I6
sS'socialimpactarchitects.com'
p2634
I1
sS'naptimeismytime.com'
p2635
I1
sS'www.eurozine.com'
p2636
I1
sS'irmaschiffers2014.wordpress.com'
p2637
I1
sS'www.globalhealthhub.org'
p2638
I1
sS'goedenieuws.nl'
p2639
I1
sS'www.trackingzebra.com'
p2640
I1
sS'jessicacollins.com'
p2641
I1
sS'let-youknow.blogspot.com'
p2642
I2
sS'hazmappingsummit.wordpress.com'
p2643
I1
sS'knews.esy.es'
p2644
I1
sS'www.thestar.com.my'
p2645
I32
sS'www.ready.gov'
p2646
I1
sS'sunnyinlondon.com'
p2647
I1
sS'www.ncpolicywatch.com'
p2648
I1
sS'exopolitics.blogs.com'
p2649
I1
sS'ant-63.livejournal.com'
p2650
I1
sS'bearingarms.com'
p2651
I1
sS'libertariannation.com'
p2652
I3
sS'www.qatarday.com'
p2653
I1
sS'www.heraldsun.com'
p2654
I1
sS'www.couriermail.com.au'
p2655
I6
sS'www.airlineberg.com'
p2656
I2
sS'www.radio-on-berlin.com'
p2657
I1
sS'shtzr.tumblr.com'
p2658
I1
sS'tekno.kompas.com'
p2659
I1
sS'airflightdisaster.com'
p2660
I1
sS'artistaszonaoriente.blogspot.com'
p2661
I1
sS'www.towergarden.com'
p2662
I1
sS'blog.diynetwork.com'
p2663
I1
sS'www.mstarz.com'
p2664
I1
sS'news24h.allnews24h.com'
p2665
I11
sS'lovingthebike.com'
p2666
I1
sS'nieuwsuitoekraine.blogspot.com'
p2667
I1
sS'www.medicaljane.com'
p2668
I1
sS'www.quizify.xyz'
p2669
I1
sS'www.geo-airbusds.com'
p2670
I1
sS'chedet.cc'
p2671
I1
sS'www.jimstonefreelance.com'
p2672
I1
sS'www.eTherapyofCT.co'
p2673
I1
sS'blogs.salesforce.com'
p2674
I3
sS'sarahhearts.com'
p2675
I1
sS'www.theeventchronicle.com'
p2676
I1
sS'www.jpnn.com'
p2677
I1
sS'endtimeheadlines.org'
p2678
I2
sS'www.sottomarinakite.it'
p2679
I1
sS'captainstarkiller.blogspot.com'
p2680
I1
sS'savvyvirtualjobs.com'
p2681
I1
sS'andreaclaire.onsugar.com'
p2682
I1
sS'www.zivame.com'
p2683
I1
sS'realraw.us'
p2684
I1
sS'www.eaec.org'
p2685
I1
sS'www.dairymoos.com'
p2686
I1
sS'www.nst.com.my'
p2687
I82
sS'KOIN.co'
p2688
I1
sS'www.wikihow.com'
p2689
I1
sS'futuristrendcast.wordpress.com'
p2690
I4
sS'abc.go.com'
p2691
I1
sS'skatepunkclub.com'
p2692
I1
sS'origin.www.futureoflight.philips.com'
p2693
I1
sS'www-01.ibm.com'
p2694
I15
sS'www.canberratimes.com.au'
p2695
I2
sS'www.1stheadlines.com'
p2696
I1
sS'm.metrotvnews.com'
p2697
I1
sS'www.globalissues.org'
p2698
I1
sS'udisglutenfree.com'
p2699
I2
sS'sassyschnauzer.com'
p2700
I1
sS'stylenews.peoplestylewatch.com'
p2701
I1
sS'www.pearltrees.com'
p2702
I1
sS'trendingnews.n'
p2703
I1
sS'shitsgottastop.wordpress.com'
p2704
I1
sS'one-dead.beforeitsnews.com'
p2705
I1
sS'video.metrotvnews.com'
p2706
I1
sS'wiredupdater.com'
p2707
I1
sS'cookery-ideas.co.uk'
p2708
I2
sS'www.healthmap.org'
p2709
I18
sS'au.news-freak.com'
p2710
I57
sS'www.shirleycorder.com'
p2711
I1
sS'tallbloke.wordpress.com'
p2712
I1
sS'video.foxbusiness.com'
p2713
I2
sS'www.recipebyday.com'
p2714
I1
sS'forums.thechaniproject.com'
p2715
I1
sS'nieuwsuur.nl'
p2716
I3
sS'abc13.com'
p2717
I2
sS'giphy.com'
p2718
I1
sS'rockhall.com'
p2719
I1
sS'wabashcenter.typepad.com'
p2720
I1
sS'www.denverpost.com'
p2721
I3
sS'digitalhumanitarians.com'
p2722
I1
sS'cnsnews.com'
p2723
I1
sS'www.presstv.com'
p2724
I2
sS'www.jimmydean.com'
p2725
I1
sS'cakeandbubbly.blogspot.com'
p2726
I1
sS'www.vox.com'
p2727
I5
sS'www.foodsafety.gov'
p2728
I3
sS'www.desertsun.com'
p2729
I1
sS'www.business-standard.com'
p2730
I5
sS'tunein.com'
p2731
I2
sS'sheswickedhealthy.com'
p2732
I2
sS'limportant.fr'
p2733
I1
sS'www.projectsunlight.us'
p2734
I1
sS'www.iied.org'
p2735
I1
sS'www.thequicklaugh.com'
p2736
I1
sS'www.irishtimes.com'
p2737
I2
sS'news.aviation-safety.net'
p2738
I2
sS'www.lisaeldridge.com'
p2739
I1
sS'pointlessdistraction.com'
p2740
I3
sS'aviation-safety.net'
p2741
I4
sS'www.massvacation.com'
p2742
I1
sS'dailycapital.pk'
p2743
I1
sS'newsjunkiepost.com'
p2744
I1
sS'thediplomat.com'
p2745
I1
sS'cnews.canoe.ca'
p2746
I1
sS'lh5.googleusercontent.com'
p2747
I2
sS'ca.news-freak.com'
p2748
I1
sS'www.nybooks.com'
p2749
I2
sS'oceanservice.noaa.gov'
p2750
I1
sS'alethonews.wordpress.com'
p2751
I2
sS'www.cnnindonesia.com'
p2752
I7
sS'www.uglychristmassweatershirts.com'
p2753
I1
sS'www.defenseone.com'
p2754
I1
sS'www.traditionalhome.com'
p2755
I1
sS'www.hillbillysanta.com'
p2756
I1
sS'translate.google.co.uk'
p2757
I1
sS'www.vogue.com'
p2758
I2
sS'translate.google.pl'
p2759
I4
sS'www.fsis.usda.gov'
p2760
I1
sS'www.deliciousmagazine.co.uk'
p2761
I1
sS'www.washingtontimes.com'
p2762
I1
sS'theomaway.com'
p2763
I1
sS'candobetter.net'
p2764
I5
sS'tour.naughtyamerica.com'
p2765
I1
sS'www.snappytv.com'
p2766
I3
sS'gamerstudio.tv'
p2767
I2
sS'www.devicebondage.com'
p2768
I1
sS'www.darkangelsandprettyfreaks.com'
p2769
I1
sS'blog.charitynavigator.org'
p2770
I1
sS'www.canewse.com'
p2771
I56
sS'thescoopblog.dallasnews.com'
p2772
I3
sS'xaameriki.wordpress.com'
p2773
I1
sS'www.avherald.com'
p2774
I1
sS'drinks.seriouseats.com'
p2775
I1
sS'www.winnipegfreepress.com'
p2776
I1
sS'www.middleeastmonitor.com'
p2777
I1
sS'www.childfund.org.au'
p2778
I2
sS'redcross.org.au'
p2779
I5
sS'ChiquisOnline.co'
p2780
I1
sS'blog.conservation.org'
p2781
I3
sS'www.theglobeandmail.com'
p2782
I9
sS'tmi.me'
p2783
I2
sS'usa.mfa.gov.ua'
p2784
I1
sS'arxiv.org'
p2785
I1
sS'malaysia.yahoo.com'
p2786
I1
sS'blog.oup.com'
p2787
I3
sS'www.jesustweeters.com'
p2788
I1
sS'hypelifemagazine.com'
p2789
I1
sS'www.koit.com'
p2790
I1
sS'africasacountry.com'
p2791
I1
sS'www.chroniclelive.co.uk'
p2792
I23
sS'www.khou.com'
p2793
I2
sS'www.businessforafairminimumwage.org'
p2794
I1
sS'subscribe.imngmedicalmedia.com'
p2795
I1
sS'justpaste.it'
p2796
I1
sS'www.nbcbayarea.com'
p2797
I1
sS'www.godiva.com'
p2798
I1
sS'www.wanttoknow.nl'
p2799
I2
sS'www.actionaid.org.uk'
p2800
I1
sS'www.oruathletics.com'
p2801
I1
sS'www.cigspy.com'
p2802
I1
sS'macedoniaonline.eu'
p2803
I2
sS'ottawa.bibliocommons.com'
p2804
I1
sS'www.ncr-iran.org'
p2805
I1
sS'www.deseretnews.com'
p2806
I5
sS'www.enca.com'
p2807
I7
sS'www.biggone.com'
p2808
I2
sS'en.interfax.com.ua'
p2809
I3
sS'www.wtsp.com'
p2810
I1
sS'uk.news.yahoo.com'
p2811
I1
sS'Vickyathome.co'
p2812
I1
sS'www.iol.co.za'
p2813
I2
sS'www.weareiowa.com'
p2814
I1
sS'spenden.correctiv.org'
p2815
I1
sS'blog.heart.org'
p2816
I1
sS'trove.com'
p2817
I1
sS'www.bostonglobe.com'
p2818
I6
sS'rapidfire.sci.gsfc.nasa.gov'
p2819
I1
sS'www.detroitnews.com'
p2820
I2
sS'www.usatoday.com'
p2821
I14
sS'www.freep.com'
p2822
I2
sS'tvnz.co.nz'
p2823
I2
sS'thoughcowardsflinch.com'
p2824
I1
sS'www.greenpeace.org.au'
p2825
I1
sS'blog.savesfbay.org'
p2826
I1
sS'www.savingsinseconds.com'
p2827
I1
sS'accord.org.ph'
p2828
I1
sS'niqnaq.wordpress.com'
p2829
I2
sS'translate.google.de'
p2830
I1
sS'theredandtheblue.org'
p2831
I2
sS'humor.about.com'
p2832
I1
sS'www.geopoliticalmonitor.com'
p2833
I1
sS'blowingrocknews.com'
p2834
I1
sS'pets.petsmart.com'
p2835
I1
sS'leaders.edweek.org'
p2836
I1
sS'cuindependent.com'
p2837
I1
sS'jimmcilvaine.sportsblog.com'
p2838
I1
sS'www.classicmoviehub.com'
p2839
I1
sS'www.carbonbrief.org'
p2840
I4
sS'projectavalon.net'
p2841
I1
sS'www.bigspringenvironmental.com'
p2842
I1
sS'hintmama.com'
p2843
I1
sS'abyafashionblog.com'
p2844
I1
sS'my.care.org'
p2845
I1
sS'FootballBinge.co'
p2846
I1
sS'www.discovervanuatu.com.au'
p2847
I1
sS'www.hwalibrary.com'
p2848
I1
sS'www.JoyCollinsMusic.co'
p2849
I1
sS'www.bellahousewares.com'
p2850
I2
sS'www.loonwatch.com'
p2851
I1
sS'www.malaysiandigest.com'
p2852
I9
sS'www.bizpacreview.com'
p2853
I1
sS'stthomassource.com'
p2854
I3
sS'myfox8.co'
p2855
I1
sS'www.thetimesgazette.com'
p2856
I1
sS'www.rfoy.sharegivereceive.co'
p2857
I1
sS'www.mommalew.com'
p2858
I1
sS'booksbywomen.org'
p2859
I1
sS'whatdoitellmykids.com'
p2860
I1
sS'us.hellomagazine.com'
p2861
I2
sS'www.arrl.org'
p2862
I3
sS'www.abeldanger.net'
p2863
I2
sS'www.jellobeans.com'
p2864
I1
sS'blogs.cfr.org'
p2865
I1
sS'www.gangstanews.com'
p2866
I1
sS'www.kmtr.com'
p2867
I1
sS'm.space.com'
p2868
I1
sS'www.interpretermag.com'
p2869
I12
sS'www.runningonhappy.com'
p2870
I1
sS'www.prisonplanet.com'
p2871
I1
sS'www.marinmommies.com'
p2872
I1
sS'www.tribunnews.com'
p2873
I4
sS'community.ew.com'
p2874
I1
sS'onejohnmitchell.com'
p2875
I1
sS'commonhealth.wbur.org'
p2876
I1
sS'attitudeofgratitude.typepad.com'
p2877
I1
sS'healthimpactnews.com'
p2878
I1
sS'ourpresidents.tumblr.com'
p2879
I1
sS'dl.dropboxusercontent.com'
p2880
I1
sS'chris-bordeleau.artistwebsites.com'
p2881
I1
sS's13.co'
p2882
I1
sS'im.rediff.com'
p2883
I1
sS'www.surfline.com'
p2884
I2
sS'www.sfgate.com'
p2885
I3
sS'www.680news.com'
p2886
I1
sS'www.butterballabuse.com'
p2887
I1
sS'soundcloud.com'
p2888
I20
sS'eatsporkjew.com'
p2889
I1
sS'www.elsevier.nl'
p2890
I3
sS'vladimirsuchan.blogspot.co.uk'
p2891
I1
sS'stories.imb.org'
p2892
I2
sS'www.mediafire.com'
p2893
I2
sS'bemusedbackpacker.com'
p2894
I1
sS'www.godlikeproductions.com'
p2895
I1
sS'psalmistspad.blogspot.com'
p2896
I1
sS'www.eatbreathemoveheal.com'
p2897
I1
sS'www.shabbatautomation.com'
p2898
I1
sS'evolve24.com'
p2899
I1
sS'goo.gl'
p2900
I1
sS'www.celebritybabyscoop.com'
p2901
I1
sS'hemp.org'
p2902
I1
sS'www.unicef.org'
p2903
I8
sS'www.fliegerlaw.com'
p2904
I1
sS'peraktoday.com.my'
p2905
I1
sS'www.directrelief.org'
p2906
I4
sS'archive.aweber.com'
p2907
I2
sS'HughesDayParty.co'
p2908
I1
sS'larouchepac.com'
p2909
I1
sS'ian56.blogspot.co.uk'
p2910
I1
sS'www.chooseveg.com'
p2911
I3
sS'www.bighospitality.co.uk'
p2912
I1
sS'www.academia.edu'
p2913
I1
sS'bullseyefx.com'
p2914
I1
sS'benjaminfulford.typepad.com'
p2915
I1
sS'vineyardsaker.blogspot.ca'
p2916
I8
sS'www.virtuagirl.com'
p2917
I1
sS'www.crossfiteado.com'
p2918
I1
sS'scontent.xx.fbcdn.net'
p2919
I1
sS'repeatingislands.com'
p2920
I1
sS'ssl.clickbank.net'
p2921
I1
sS'paper.li'
p2922
I4
sS'weedbinge.com'
p2923
I1
sS'www.stelling.nl'
p2924
I1
sS'www.tastingtable.com'
p2925
I4
sS'www.truth-out.org'
p2926
I3
sS'www.mapaction.org'
p2927
I1
sS'countryoffice.unfpa.org'
p2928
I1
sS'www.dvdfab.cn'
p2929
I1
sS'www.cwsor.org'
p2930
I1
sS'mycrazyheadlines.blogspot.ru'
p2931
I1
sS'www.sarah-mcdonald.com'
p2932
I1
sS'3QuartersToday.com'
p2933
I2
sS'leomashariki.wordpress.com'
p2934
I1
sS'www.nailpro.com'
p2935
I1
sS'malaysiandigest.co'
p2936
I2
sS'www.barstoolsports.com'
p2937
I1
sS'www.pasteur.fr'
p2938
I1
sS'www.finlit.com'
p2939
I1
sS'www.domain-b.com'
p2940
I2
sS'www.examiner.com'
p2941
I15
sS'public.tableausoftware.com'
p2942
I1
sS'one-europe.info'
p2943
I1
sS'www.kp.ru'
p2944
I7
sS'theladylovescouture.com'
p2945
I1
sS'www.dumpert.nl'
p2946
I1
sS'www.unisdr.org'
p2947
I1
sS'www.citypaper.com'
p2948
I1
sS'theamericanmuslim.org'
p2949
I1
sS'www.sydneyswans.com.au'
p2950
I1
sS'www.bbc.co.uk'
p2951
I133
sS'www.newsmax.com'
p2952
I1
sS'www.linkedin.com'
p2953
I4
sS'www.ExposeTheTPP.or'
p2954
I1
sS'newagemama.blogspot.com'
p2955
I1
sS'www.naturalphotographyspa.com'
p2956
I1
sS'www.dailybrew.com'
p2957
I1
sS'crazy-people.greatpix.me'
p2958
I1
sS'www.dmnews.com'
p2959
I1
sS'themichiganmom.com'
p2960
I1
sS'radioon.out.airtime.pro:8000'
p2961
I1
sS'bieber.trendolizer.com'
p2962
I1
sS'www.eurotopics.net'
p2963
I1
sS'theislamicmonthly.com'
p2964
I1
sS'www.dailystar.co.uk'
p2965
I4
sS'philsreport.blogspot.com'
p2966
I2
sS'www.castleviewacademy.com'
p2967
I1
sS'm.english.astroawani.com'
p2968
I4
sS'russialist.org'
p2969
I1
sS'www.freemasonrytoday.com'
p2970
I1
sS'support.unwomen.org.au'
p2971
I1
sS'the3006cafe.org'
p2972
I1
sS'blog.freepeople.com'
p2973
I1
sS'Checkupnewsroom.co'
p2974
I1
sS'www.intellihub.com'
p2975
I4
sS'www.alriyadh.com'
p2976
I1
sS'www.hurriyetdailynews.com'
p2977
I2
sS'www.blisstree.com'
p2978
I1
sS'thehollywood5.com'
p2979
I1
sS'www.satellitetoday.com'
p2980
I1
sS'www.ktvu.com'
p2981
I2
sS'fieldhousepresentsaholidaybenefit.bandcamp.com'
p2982
I1
sS'img1.1tv.ru'
p2983
I1
sS'www.oxfamblogs.org'
p2984
I2
sS'censorednewsnow.co'
p2985
I1
sS'smslwithheidi.co'
p2986
I1
sS'www.history.com'
p2987
I1
sS'www.airlive.net'
p2988
I28
sS'www.dagelijksestandaard.nl'
p2989
I1
sS'theyolandaadamsmorningshow.com'
p2990
I1
sS'www.abc.net.au'
p2991
I83
sS'www.periodpanteez.com'
p2992
I1
sS'www.readfulapp.com'
p2993
I2
sS'www.pakistancourant.com'
p2994
I1
sS'www.eppgroup.eu'
p2995
I1
sS'www.lulu.com'
p2996
I2
sS'www.greenparty.org.uk'
p2997
I1
sS'uk.wikipedia.org'
p2998
I1
sS'www.stjamesnews.com'
p2999
I1
sS'onemicmagazine.com'
p3000
I1
sS'gigaom.com'
p3001
I1
sS'pravdanews.info'
p3002
I1
sS'www.airpush.com'
p3003
I1
sS'www.orlandosentinel.com'
p3004
I2
sS'www.dixine.com'
p3005
I4
sS'history1800s.about.com'
p3006
I1
sS'www.sears.com'
p3007
I1
sS'russian.rt.com'
p3008
I1
sS'thedailyblu.com'
p3009
I1
sS'www.euroasianews.com'
p3010
I1
sS'www.ooyuz.com'
p3011
I1
sS'www.aspicyperspective.com'
p3012
I1
sS'www.frontlinedesk.com'
p3013
I1
sS'rinf.com'
p3014
I9
sS'dosie.su'
p3015
I3
sS'toyeenbalogun.blogspot.com'
p3016
I15
sS'ukok.page.tl'
p3017
I3
sS'pontiactribune.com'
p3018
I2
sS'www.mamamia.com.au'
p3019
I1
sS'www.eia.gov'
p3020
I1
sS'www.perthnow.com.au'
p3021
I7
sS'professorsblogg.com'
p3022
I2
sS'www.homebrewchef.com'
p3023
I2
sS'novororssiyaupdates.blogspot.com'
p3024
I1
sS'www.skankworks.net'
p3025
I1
sS'www.mid.ru'
p3026
I1
sS'BingePod.co'
p3027
I1
sS'myjour.com'
p3028
I1
sS'www.matthewaid.com'
p3029
I1
sS'thetruth24.co'
p3030
I1
sS'www.ecb.co.uk'
p3031
I1
sS'www.addictinginfo.org'
p3032
I1
sS'www.cspnet.com'
p3033
I1
sS'tcktcktck.org'
p3034
I1
sS'www.etsy.com'
p3035
I75
sS'www.digitalspy.co.uk'
p3036
I1
sS'www.x17online.com'
p3037
I2
sS'thegprgab.wordpress.com'
p3038
I1
sS'www.ibtimes.com'
p3039
I8
sS'faithalongtheway.com'
p3040
I1
sS'fox2now.com'
p3041
I1
sS'www.nationmultimedia.com'
p3042
I2
sS'i.stuff.co.nz'
p3043
I1
sS'www.tannacoffeefundraiser.co'
p3044
I1
sS'deltatoday.blogspot.com'
p3045
I3
sS'endthenra.com'
p3046
I4
sS'newslocal.newspaperdirect.com'
p3047
I1
sS'creatormagazine.com'
p3048
I1
sS'www.boston.com'
p3049
I3
sS'www.mommatoldmeblog.com'
p3050
I1
sS'news360.com'
p3051
I1
sS'www.theverge.com'
p3052
I1
sS'www.todayszaman.com'
p3053
I1
sS'modernlatinos.com'
p3054
I1
sS'www.infiniteunknown.net'
p3055
I1
sS'www.prnewsonline.com'
p3056
I2
sS'yasminareality.com'
p3057
I1
sS'7mei.nl'
p3058
I16
sS'russiavsworld.com'
p3059
I1
sS'headsinthefreezer.tumblr.com'
p3060
I1
sS'danoinyc.com'
p3061
I1
sS'highlandsministriesonline.org'
p3062
I1
sS'gallys.scoreland.com'
p3063
I7
sS'thedailyscholar.com'
p3064
I1
sS'm.redcross.org.au'
p3065
I1
sS'www.alcoholprofessor.com'
p3066
I1
sS'pixaroma.com'
p3067
I1
sS'centuryplaza.hyatt.com'
p3068
I1
sS'www.nbcnewyork.com'
p3069
I1
sS'www.myuniverse.co.in'
p3070
I1
sS'ottawacitizen.com'
p3071
I2
sS'www.cdacnetwork.org'
p3072
I1
sS'www.dadt.com'
p3073
I1
sS'www.zerohedge.com'
p3074
I20
sS'halloweenbinge.com'
p3075
I1
sS'www.feltwithlovedesigns.com'
p3076
I10
sS'www.wallmiami.com'
p3077
I1
sS'tweetedtimes.com'
p3078
I3
sS'michaelrosensays.wordpress.com'
p3079
I1
sS'www.easyclicktravel.com'
p3080
I1
sS'www.intouchweekly.com'
p3081
I2
sS'lh3.googleusercontent.com'
p3082
I1
sS'www.komodokamado.com'
p3083
I1
sS'crcuf.fr'
p3084
I1
sS'realfoodrealkitchens.com'
p3085
I1
sS'eandt.theiet.org'
p3086
I1
sS'www.acnc.gov.au'
p3087
I1
sS'nowthisnews.com'
p3088
I1
sS'gallys.xlgirls.com'
p3089
I1
sS'www.brianswebworks.com'
p3090
I1
sS'chiikyna.blogspot.com'
p3091
I1
sS'www.nj.com'
p3092
I1
sS'splashtablet.co'
p3093
I1
sS'www.TheDatingDivas.co'
p3094
I1
sS'www.wpxi.com'
p3095
I1
sS'www.pacificdisaster.net'
p3096
I1
sS'www.policemag.com'
p3097
I1
sS'www.china.org.cn'
p3098
I9
sS'www.kgw.com'
p3099
I8
sS'www.worldbulletin.net'
p3100
I2
sS'docs.google.com'
p3101
I1
sS'www.acaps.org'
p3102
I1
sS'www.huggies.com'
p3103
I1
sS'secure2.convio.net'
p3104
I3
sS'engforum.pravda.ru'
p3105
I1
sS'www.guerardmedia.com'
p3106
I3
sS'fortruss.blogspot.ru'
p3107
I1
sS'homemom3.com'
p3108
I1
sS'www.ibtimes.co.uk'
p3109
I15
sS'www.esolcourses.com'
p3110
I1
sS'pulse.ncpolicywatch.org'
p3111
I1
sS'2014.twitter.com'
p3112
I1
sS'usa.thetruth24.com'
p3113
I1
sS'auntypru.com'
p3114
I1
sS'hauteliving.com'
p3115
I1
sS'www.buzzinrome.com'
p3116
I1
sS'kosherveg.com'
p3117
I2
sS'www.westernjournalism.com'
p3118
I1
sS'www.historyofvaccines.org'
p3119
I1
sS'ukrainereferendum.blogspot.ro'
p3120
I1
sS'destinationsanddepartures.wordpress.com'
p3121
I1
sS'www.maersk.com'
p3122
I1
sS'peru21.pe'
p3123
I1
sS'mashable.com'
p3124
I37
sS'www.nrlmry.navy.mil'
p3125
I1
sS'www.davidicke.com'
p3126
I3
sS'www.nowfoods.com'
p3127
I1
sS'www.punjabupdate.com'
p3128
I1
sS'www.KAOSradioAustin.or'
p3129
I1
sS'www.craftymorning.com'
p3130
I1
sS'themuslimvibe.com'
p3131
I1
sS'www.tehlosangelestimes.com'
p3132
I1
sS'ronaldthomaswest.com'
p3133
I1
sS'militaryMaps.info?lat=48.1409056&lng=38.2575757&z=12&t='
p3134
I1
sS'newstreasury.com'
p3135
I1
sS'triblive.com'
p3136
I1
sS'airasiaqz8501.co'
p3137
I1
sS'www.a-kitchen-addiction.com'
p3138
I2
sS'www.badflix.net'
p3139
I1
sS'finance.yahoo.com'
p3140
I5
sS'www.creativebloq.com'
p3141
I1
sS'www.verticalmag.com'
p3142
I1
sS'www.success.com'
p3143
I1
sS'www.tabletalk.io'
p3144
I1
sS'newsfirst.lk'
p3145
I1
sS'www.theyucatantimes.com'
p3146
I1
sS'www.radionz.co.nz'
p3147
I12
sS'ukraineatwar.blogspot.co.uk'
p3148
I3
sS'www.conventionofstates.com'
p3149
I2
sS'sirgryphon.deviantart.com'
p3150
I1
sS'unfollowers.com'
p3151
I1
sS'www.samaritanspurse.org'
p3152
I7
sS'www.buzzfeed.com'
p3153
I37
sS'myfac.org.au'
p3154
I1
sS'www.mobli.com'
p3155
I1
sS'www.vocativ.com'
p3156
I1
sS'fr.sputniknews.com'
p3157
I1
sS'www.innercitypress.com'
p3158
I1
sS'www.kompas.com'
p3159
I1
sS'www.freepressjournal.in'
p3160
I1
sS'blog.blockchain.com'
p3161
I1
sS'tenplay.com.au'
p3162
I1
sS'www.chicagotofrance.com'
p3163
I1
sS'www.ecfr.eu'
p3164
I2
sS'nuestroamigo.wordpress.com'
p3165
I2
sS'fee.org'
p3166
I1
sS'touch.latimes.com'
p3167
I1
sS'www.blackenterprise.com'
p3168
I1
sS'reseauinternational.net'
p3169
I2
sS'www.jwatch.org'
p3170
I1
sS'theleadershipacademy.blogspot.co.uk'
p3171
I1
sS'www.icontact-archive.com'
p3172
I1
sS'www.therakyatpost.com'
p3173
I8
sS'metro.co.uk'
p3174
I2
sS'www.theparliamentmagazine.eu'
p3175
I1
sS'www.14publications.com'
p3176
I2
sS'www.bullionstar.com'
p3177
I1
sS'nampuom-pycu.livejournal.com'
p3178
I1
sS'www.express.co.uk'
p3179
I1
sS'homeiswhereyourbagis.com'
p3180
I1
sS'blogs.redcross.org.uk'
p3181
I1
sS'blogs.psychcentral.com'
p3182
I1
sS'kl.coconuts.co'
p3183
I1
sS'www.thenewstribune.com'
p3184
I1
sS'sites.securepaynet.net'
p3185
I3
sS'www.wcarn.com'
p3186
I10
sS'www.jordanwinery.com'
p3187
I1
sS'music.cbc.ca'
p3188
I1
sS'www.israelhayom.com'
p3189
I1
sS'myblogu.com'
p3190
I1
sS'edwardmd.wordpress.com'
p3191
I3
sS'getrealphilippines.com'
p3192
I1
sS'us4.campaign-archive1.com'
p3193
I2
sS'therevue.ca'
p3194
I1
sS'www.aviationtoday.com'
p3195
I8
sS'www.wdsu.com'
p3196
I1
sS'blogwatch.tv'
p3197
I1
sS'www.actorsreporter.com'
p3198
I1
sS'povnatorba.blogspot.com'
p3199
I1
sS'www.3dotnews.com'
p3200
I2
sS'fineartamerica.com'
p3201
I1
sS'currents.plos.org'
p3202
I1
sS'www.puffpastry.com'
p3203
I1
sS'www.comebackmomma.com'
p3204
I1
sS'ww1.gooiley.co'
p3205
I1
sS'www.peta.org'
p3206
I12
sS'www.projectaware.org'
p3207
I1
sS'www.gistplanet.net'
p3208
I1
sS'www.boeing.com'
p3209
I1
sS'www.downloadnewthemes.com'
p3210
I1
sS'real-estate-spokane.com'
p3211
I2
sS'www.WrightBusinessIT.com'
p3212
I1
sS'agmetalminer.com'
p3213
I1
sS'anythingrelated.com'
p3214
I1
sS'www.noonsite.com'
p3215
I1
sS'www.webcorenigeria.co'
p3216
I1
sS'cbfblog.com'
p3217
I1
sS'latino.foxnews.com'
p3218
I3
sS'jesterofchaos.listen2myradio.com'
p3219
I1
sS'unilubis.com'
p3220
I1
sS'www.mormonnewsroom.org.nz'
p3221
I1
sS'agos.rappler.com'
p3222
I1
sS'www.groei360.com'
p3223
I1
sS'selahafrik.com'
p3224
I1
sS'stockinfocus.ru'
p3225
I1
sS'amf.so'
p3226
I1
sS'euobserver.com'
p3227
I1
sS'blogs.hrhero.com'
p3228
I1
sS'clips4sale.com'
p3229
I1
sS'www.recipesfromanormalmum.com'
p3230
I1
sS'www.kezi.com'
p3231
I2
sS'www.stumbleupon.com'
p3232
I2
sS'www.asean.org'
p3233
I1
sS'ictmax.org'
p3234
I3
sS'qz8501.bookofresearch.com'
p3235
I1
sS'ireport.cnn.com'
p3236
I6
sS'unicefeapro.blogspot.com'
p3237
I14
sS'tbo.com'
p3238
I1
sS'abcnews.go.com'
p3239
I16
sS'www.malaysiaairlines.com'
p3240
I1
sS'www.antaranews.com'
p3241
I2
sS'aftcra.com'
p3242
I1
sS'www.brecorder.com'
p3243
I1
sS'www.pm.gov.au'
p3244
I1
sS'www.totallyhomeimprovement.com'
p3245
I1
sS'www.illawarramercury.com.au'
p3246
I4
sS'www.eei.org'
p3247
I1
sS'www.churchwork.com'
p3248
I1
sS'benswann.com'
p3249
I2
sS'www.habitatireland.ie'
p3250
I2
sS'sickflyers.co'
p3251
I1
sS'followsummer.me'
p3252
I1
sS'www.bloomberg.com'
p3253
I33
sS'tribktla.files.wordpress.com'
p3254
I1
sS'www.insuranceday.com'
p3255
I3
sS'sglinks.com'
p3256
I10
sS'www.duckonwheels.com'
p3257
I2
sS'focusdailynews.com'
p3258
I2
sS'www.yrbmagazine.com'
p3259
I1
sS'www.mmail.com.my'
p3260
I1
sS'www.sweetpaulmag.com'
p3261
I1
sS'thepeninsulaqatar.com'
p3262
I2
sS'annals.org'
p3263
I1
sS'www.inetwebsystems.co'
p3264
I3
sS'www.cashcrate.com'
p3265
I1
sS'TurkeyTrot.com'
p3266
I1
sS'foodtwitter.com'
p3267
I1
sS'www.sciencedirect.com'
p3268
I1
sS'www.pastemagazine.com'
p3269
I2
sS'in.twirus.co'
p3270
I1
sS'cdn.knightlab.com'
p3271
I1
sS'www.bhg.com'
p3272
I1
sS'donate.worldanimalprotection.org.au'
p3273
I2
sS'byuiscroll.org'
p3274
I1
sS'www.exaholics.com'
p3275
I1
sS'www.aid.govt.nz'
p3276
I1
sS'www.anagramtimes.com'
p3277
I1
sS'aldianews.com'
p3278
I1
sS'www.itly.com'
p3279
I1
sS'www.ninthdecimal.com'
p3280
I1
sS'rover.ebay.com'
p3281
I1
sS'www.shadyfrog.com'
p3282
I1
sS'www.canoe.ca'
p3283
I1
sS'www.ecoisms.com'
p3284
I1
sS'rayj.com'
p3285
I1
sS'm.cb.pr'
p3286
I1
sS'www.haaretz.com'
p3287
I1
sS'www.theatlantic.com'
p3288
I7
sS'writeitforward.edublogs.or'
p3289
I1
sS'googleasiapacific.blogspot.sg'
p3290
I1
sS'skibinsky.com'
p3291
I1
sS'edisonleecomic.com'
p3292
I1
sS'FOX2now.co'
p3293
I1
sS'www.beautifulbooze.com'
p3294
I1
sS'jhaines6.wordpress.com'
p3295
I2
sS'kabobpdx.us9.list-manage.com'
p3296
I1
sS'www.providencejournal.com'
p3297
I1
sS'pelletgrillgiveaway.pgtb.me'
p3298
I1
sS'www.jdradio.ne'
p3299
I1
sS'kobi5.com'
p3300
I2
sS'www.forbes.com'
p3301
I14
sS'nogodbutallah1.blogspot.co'
p3302
I1
sS'janeunchained.com'
p3303
I1
sS'www.americanmanufacturing.org'
p3304
I1
sS'madmimi.com'
p3305
I1
sS'journals.lww.com'
p3306
I1
sS'globalvoicesonline.org'
p3307
I7
sS'www.360nobs.com'
p3308
I1
sS'whitmanpioneer.com'
p3309
I1
sS'www.king5.co'
p3310
I1
sS'www.vibe.com'
p3311
I1
sS'www.institutionalinvestor.com'
p3312
I2
sS'www.gmanetwork.com'
p3313
I3
sS'dominicanewsonline.com'
p3314
I1
sS'rightrelevance.com'
p3315
I8
sS'www.rac.org'
p3316
I1
sS'tabulaa.co'
p3317
I1
sS'www.medibank.com.au'
p3318
I1
sS'www.wayfair.com'
p3319
I1
sS'fancy.com'
p3320
I1
sS'www.onderzoeksraad.nl'
p3321
I11
sS'www.shelterbox.org'
p3322
I4
sS'www.fivehearthome.com'
p3323
I1
sS'www.arabamericannews.com'
p3324
I2
sS'www.wikileaks-forum.com'
p3325
I2
sS'www.govtrack.us'
p3326
I1
sS'www.steelorbis.com'
p3327
I1
sS'www.homeserveusa.com'
p3328
I1
sS'thehill.com'
p3329
I3
sS'loviv.com'
p3330
I1
sS'www.iom.int'
p3331
I2
sS'www.agencyprotalent.com'
p3332
I1
sS'www.kdnuggets.com'
p3333
I1
sS'www.dentalden.in'
p3334
I1
sS'censor.net.ua'
p3335
I2
sS'www.papillionforeignmotors.com'
p3336
I1
sS'www.uschamberfoundation.org'
p3337
I1
sS'cakerecipebook.com'
p3338
I1
sS'www.merdeka.com'
p3339
I1
sS'www.viralgist.com'
p3340
I1
sS'www.kiisfm.com'
p3341
I1
sS'www.dailydot.com'
p3342
I2
sS'ohsheglows.com'
p3343
I1
sS'maailm.postimees.ee'
p3344
I1
sS'www.australiangeographic.com.au'
p3345
I1
sS'www.tehlozangeleztimez.com'
p3346
I13
sS'www.bostonherald.com'
p3347
I1
sS'journal-neo.org'
p3348
I5
sS'internship.greyenterprisesholdings.com'
p3349
I1
sS'naughteeismaxim.blogspot.com'
p3350
I1
sS'www.oxfam.org.au'
p3351
I7
sS'ec.libsyn.com'
p3352
I3
sS'www.standaard.be'
p3353
I1
sS'allpinoynews.com'
p3354
I1
sS'rtd.rt.com'
p3355
I4
sS'www.worldanimalprotection.org.uk'
p3356
I2
sS'www.kake.com'
p3357
I1
sS'nikechillemi.wordpress.com'
p3358
I1
sS'crystalandcomp.com'
p3359
I1
sS'www.politico.com'
p3360
I3
sS'woodtv.com'
p3361
I1
sS'www.channelnewsasia.com'
p3362
I143
sS'www.DontTouchMyGuns.co'
p3363
I1
sS'sponsoredtweets.com?utm_source=sponsoredtwts&utm_medium=referral%2520program&utm_campaign=tweeter%2520referra'
p3364
I1
sS'www.smithsonianmag.com'
p3365
I9
sS'www.planetgoldilocks.com'
p3366
I3
sS'm.tvnz.co.nz'
p3367
I1
sS'de.sputniknews.com'
p3368
I3
sS'www.mercaditorestaurants.com'
p3369
I1
sS'xrepublic.tv'
p3370
I1
sS'www.cdc.gov'
p3371
I6
sS'flipboard.com'
p3372
I1
sS'edition.cnn.com'
p3373
I68
sS'www.wired.co.uk'
p3374
I1
sS'www.dailymotion.com'
p3375
I2
sS'learningaswegohomeschooling.blogspot.com'
p3376
I1
sS'www.petaasiapacific.com'
p3377
I1
sS'water.tallyfox.com'
p3378
I1
sS'jaraads.com'
p3379
I1
sS'www.nu.nl'
p3380
I3
sS'nigeriancommercialaviationnews-news.blogspot.com'
p3381
I1
sS'www.schoolinks.com'
p3382
I1
sS'www.zagat.com'
p3383
I1
sS'russianuniverse.org'
p3384
I18
sS'm.startribune.com'
p3385
I1
sS'jadeumbrella.com'
p3386
I1
sS'shillingcoins.or'
p3387
I1
sS'www.wral.com'
p3388
I4
sS'www.denverbroncos.com'
p3389
I1
sS'mondbasis.com'
p3390
I1
sS'www.theepochtimes.com'
p3391
I5
sS'nsnbc.me'
p3392
I5
sS'www.livemint.com'
p3393
I2
sS'pointlessdiversion.com'
p3394
I2
sS'www.washingtonsblog.com'
p3395
I10
sS'www.mediapart.fr'
p3396
I1
sS'radioplayer.westsoundradio.com'
p3397
I1
sS'multichannelmerchant.com'
p3398
I1
sS'www.weber.com'
p3399
I2
sS'belsat.eu'
p3400
I2
sS'www.globalpost.com'
p3401
I5
sS'volafile.io'
p3402
I1
sS'www.themisbio.com'
p3403
I1
sS'blog.lef.org'
p3404
I1
sS'tropichomeandfamily.com'
p3405
I1
sS'blueforcetracker.com'
p3406
I1
sS'mythoughtsontechnologyandjamaica.blogspot.com'
p3407
I5
sS'prospect.org'
p3408
I1
sS'ukraineatwar.blogspot.com'
p3409
I6
sS'www.entrepreneur.com'
p3410
I2
sS'www.foodnetwork.com'
p3411
I9
sS'newsok.com'
p3412
I1
sS'boinnk.nl'
p3413
I1
sS'fairtradeamerica.org'
p3414
I1
sS'creepingsharia.wordpress.com'
p3415
I1
sS'www.turnto23.com'
p3416
I1
sS'www.healthline.com'
p3417
I2
sS'www.nrcu.gov.ua'
p3418
I1
sS'wh0lenews.blogspot.com'
p3419
I1
sS'vladimirsuchan.blogspot.com'
p3420
I2
sS'www.slang-dictionary.org'
p3421
I1
sS'peacefulcooking.blogspot.com'
p3422
I1
sS'en.censor.net.ua'
p3423
I2
sS'abouthealthdegrees.com'
p3424
I1
sS'blog.ncm.org'
p3425
I2
sS'gazette.com'
p3426
I1
sS'cameronwebb.wordpress.com'
p3427
I1
sS'zeenews.india.com'
p3428
I4
sS'www.1tv.ru'
p3429
I2
sS'fox13now.com'
p3430
I2
sS'www.caribbean360.com'
p3431
I8
sS'mic.com'
p3432
I4
sS'www.thelancet.com'
p3433
I3
sS'tamfitronics.com'
p3434
I1
sS'www.thenationalherald.com'
p3435
I1
sS'www.fa-mag.com'
p3436
I1
sS'www.103fm.net'
p3437
I1
sS'www.fitbie.com'
p3438
I1
sS'marketingdigest.com'
p3439
I2
sS'www.sfktube.com'
p3440
I3
sS'news.utep.edu'
p3441
I1
sS'doublej.net.au'
p3442
I1
sS'jacquelynnesteves.com'
p3443
I1
sS'nethope.org'
p3444
I1
sS'www.farmanddairy.com'
p3445
I1
sS'www.turkeyagenda.com'
p3446
I1
sS'rabble.ca'
p3447
I1
sS'vir.sgmjournals.org'
p3448
I1
sS'rage.com.my'
p3449
I1
sS'agenda.weforum.org'
p3450
I2
sS'www.dailyexpress.com.my'
p3451
I1
sS'www.asam.org'
p3452
I1
sS'www.howardstern.com'
p3453
I1
sS'www.hlntv.com'
p3454
I4
sS'www.hodgepodge.me'
p3455
I1
sS'cartwheel.target.com'
p3456
I1
sS'www.utiket.com.my'
p3457
I1
sS'goddess-cassandra.com'
p3458
I1
sS'www.pngloop.com'
p3459
I1
sS'twileshare.com'
p3460
I1
sS'hellovt.com'
p3461
I2
sS'www.porn.com'
p3462
I1
sS'www.claytargetsonline.com'
p3463
I1
sS'theiranproject.com'
p3464
I3
sS'geo201threats.wordpress.com'
p3465
I1
sS'jnkay.tumblr.com'
p3466
I1
sS'm.bbc.co.uk'
p3467
I8
sS'sluttygirlproblems.com'
p3468
I1
sS'www.innovationexcellence.com'
p3469
I1
sS'www.pm.gov.pg'
p3470
I1
sS'www.thedoctorstv.com'
p3471
I1
sS'www.nola.com'
p3472
I1
sS'actualidad.com.do'
p3473
I1
sS'www.economist.com'
p3474
I7
sS'conspiracytheory.mybb.ru'
p3475
I1
sS'online.liebertpub.com'
p3476
I1
sS'www.modbee.com'
p3477
I1
sS'www.counton2.com'
p3478
I1
sS'www.fox16.com'
p3479
I1
sS'www.krilovastelfox.co.u'
p3480
I1
sS'peoplestrustmalaysia.wordpress.com'
p3481
I8
sS'storycorps.org'
p3482
I1
sS'new.livestream.com'
p3483
I2
sS'www.who.int'
p3484
I1
sS'www.frontpagemag.com'
p3485
I1
sS'www.hyceplace.com'
p3486
I1
sS'theunaustralian.net'
p3487
I1
sS'www.pauladeen.com'
p3488
I3
sS'www.52perfectdays.com'
p3489
I5
sS'www.redcross.org.nz'
p3490
I1
sS'www.abc15.com'
p3491
I3
sS'www.smokeandsalt.com'
p3492
I1
sS'www.healio.com'
p3493
I2
sS'fun919.com'
p3494
I1
sS'evanesce-girl.livejournal.com'
p3495
I1
sS'stat.multimedia.mil.ru'
p3496
I1
sS'm.theage.com.au'
p3497
I2
sS'www.overv.e'
p3498
I1
sS'us1.campaign-archive1.com'
p3499
I1
sS'www.plenglish.com'
p3500
I2
sS'www.pluggedin.com'
p3501
I1
sS'www.pomonews.com'
p3502
I2
sS'ph.news.yahoo.com'
p3503
I2
sS'globalimpactchurchng.org'
p3504
I1
sS'www.ibac.org'
p3505
I1
sS'www.danielchurchill.com.au'
p3506
I1
sS'pagesix.com'
p3507
I2
sS'familylinks.icrc.org'
p3508
I2
sS'sportspressnw.com'
p3509
I1
sS'www.ft.com'
p3510
I6
sS'www.sail-world.com'
p3511
I3
sS'www.supernoder.com'
p3512
I7
sS'www.crimefictionlover.com'
p3513
I1
sS'www.hln.be'
p3514
I1
sS'www.google.nl'
p3515
I2
sS'observer.com'
p3516
I3
sS'www.unitar.org'
p3517
I6
sS'vid.me'
p3518
I1
sS'directaerojobs.com'
p3519
I4
sS'app.box.com'
p3520
I1
sS'www.voicesofliberty.com'
p3521
I1
sS'obkon.ucoz.com'
p3522
I4
sS'www.playboy.com'
p3523
I2
sS'clicksrvr.co'
p3524
I1
sS'themovetoamerica.wordpress.com'
p3525
I1
sS'dailyeeuu.tusueldo.com'
p3526
I3
sS'www.wired.com'
p3527
I5
sS'www.worldvision.org.ph'
p3528
I1
sS'vineyardsaker.blogspot.co.uk'
p3529
I1
sS'beltwaybargainmom.com'
p3530
I1
sS'www.slate.com'
p3531
I8
sS'www.sixfivenation.com'
p3532
I1
sS'zaytuna.org'
p3533
I1
sS'donate.oxfam.org.uk'
p3534
I1
sS'www.freefuninaustin.com'
p3535
I1
sS'karlenepetitt.blogspot.com'
p3536
I1
sS'enjoyingthisjourney.com'
p3537
I5
sS'www.jihadwatch.org'
p3538
I1
sS'drive.google.com'
p3539
I1
sS'www.morrisdailyherald.com'
p3540
I2
sS'www.trooptree.com'
p3541
I1
sS'www.greatergippsland.com'
p3542
I1
sS'www.spiegel.de'
p3543
I14
sS'info.kenrobertsondmd.com'
p3544
I1
sS'cloakinginequity.com'
p3545
I1
sS'www.zippednews.com'
p3546
I9
sS'i100.independent.co.uk'
p3547
I1
sS'www.geoengineeringwatch.org'
p3548
I1
sS'workingmumy.blogspot.com'
p3549
I1
sS'foodtank.com'
p3550
I1
sS'www.international.gc.ca'
p3551
I1
sS'www.thehindu.com'
p3552
I5
sS'www.journals.elsevier.com'
p3553
I2
sS'kfor.com'
p3554
I1
sS'thefusejoplin.com'
p3555
I2
sS'give.wfp.org'
p3556
I4
sS'belsec.skynetblogs.be'
p3557
I1
sS'news.starbucks.com'
p3558
I1
sS'patrontequila.com'
p3559
I2
sS'www.dierotepille.com'
p3560
I2
sS'twitter.com'
p3561
I5285
sS'VK.co'
p3562
I1
sS'tu2dm.blogspot.com'
p3563
I1
sS'coast.noaa.gov'
p3564
I1
sS'fox59.com'
p3565
I1
sS'ria.ru'
p3566
I6
sS'news.google.com'
p3567
I4
sS'www.ewg.org'
p3568
I1
sS'www.hulkshare.com'
p3569
I2
sS'www.huffingtonpost.com'
p3570
I60
sS'www.phillip-butler.com'
p3571
I1
sS'www.1800flowers.com:80'
p3572
I1
sS'news.feedzilla.com'
p3573
I1
sS'4bitnews.com'
p3574
I5
sS'bobstruth.blogspot.com'
p3575
I1
sS'nollyprott.wordpress.com'
p3576
I1
sS'techcrunch.com'
p3577
I2
sS'thepowerofappreciation.blogspot.com'
p3578
I1
sS'weaselzippers.us'
p3579
I1
sS'theseamanmom.com'
p3580
I1
sS'news24online.com'
p3581
I1
sS'www.abs-cbnnews.com'
p3582
I3
sS'teknologi.news.viva.co.id'
p3583
I1
sS'www.WestsideThanksgiving.or'
p3584
I1
sS'www.fierceretail.com'
p3585
I1
sS'www.oxfordjournals.org'
p3586
I1
sS'colorlines.com'
p3587
I1
sS'www.dnaindia.com'
p3588
I7
sS'goodnewscommunications.net'
p3589
I1
sS'www.newstwee.com'
p3590
I2
sS'www.crossroadsaspen.com'
p3591
I1
sS'www.kitchenbug.com'
p3592
I1
sS'www.publicdomainpictures.net'
p3593
I2
sS'hygimia69.blogspot.com'
p3594
I1
sS'saportareport.com'
p3595
I1
sS'm.christianpost.com'
p3596
I1
sS'www.storehouse.co'
p3597
I3
sS'swich.to'
p3598
I1
sS'blog.theregularguynyc.com'
p3599
I1
sS'www.barbadostoday.bb'
p3600
I1
sS'news.artnet.com'
p3601
I3
sS'anmf.org.au'
p3602
I1
sS'www.softwaredevelopersinc.com'
p3603
I1
sS'www.bonappetit.com'
p3604
I1
sS'growingupbilingual.com'
p3605
I1
sS'www.aa.com.tr'
p3606
I3
sS'm.iroking.com'
p3607
I1
sS'freewestpapua.org'
p3608
I1
sS'mag.activewearusa.com'
p3609
I1
sS'gumshoenews.com'
p3610
I2
sS'www.us-census.org'
p3611
I1
sS'www.mytailhurtsfromwaggingsomuch.com'
p3612
I1
sS'www.themalaysianinsider.com'
p3613
I31
sS'www.xvideos.com'
p3614
I1
sS'www.everydayhealth.com'
p3615
I1
sS'www.budgettravel.com'
p3616
I1
sS'health--insurance.me'
p3617
I3
sS'mobile.news.com.au'
p3618
I3
sS'naturalunseenhazards.wordpress.com'
p3619
I1
sS'hansdevreij.com'
p3620
I1
sS'www.ryanseacrest.com'
p3621
I2
sS'www.rawstory.com'
p3622
I7
sS'www.eur.army.mil'
p3623
I1
sS'theaimn.com'
p3624
I2
sS'www.unfpa.org'
p3625
I2
sS'saepta.com'
p3626
I1
sS'www.airliners.net'
p3627
I1
sS'martinamcgowan.com'
p3628
I1
sS'spaceref.com'
p3629
I1
sS'naomiishisaka.smugmug.com'
p3630
I1
sS'en.tempo.co'
p3631
I1
sS'www.jamaicaobserver.com'
p3632
I2
sS'www.pbs.org'
p3633
I5
sS'globaleconomicanalysis.blogspot.nl'
p3634
I1
sS'www.sbu.gov.ua'
p3635
I1
sS'voices.nationalgeographic.com'
p3636
I1
sS'patch.com'
p3637
I1
sS'bellincat.co'
p3638
I1
sS'thelead.blogs.cnn.com'
p3639
I4
sS'theother14.wordpress.com'
p3640
I1
sS'www.realnewsuk.com'
p3641
I1
sS'retiringtothephilippines.com'
p3642
I2
sS'www.sex.com'
p3643
I4
sS'www.hgtvgardens.com'
p3644
I1
sS'www.kentucky.com'
p3645
I1
s.